
stm32f103LCRMeter.elf:     file format elf32-littlearm

Sections:
Idx Name          Size      VMA       LMA       File off  Algn
  0 .isr_vector   0000010c  08000000  08000000  00010000  2**0
                  CONTENTS, ALLOC, LOAD, READONLY, DATA
  1 .text         000046e4  08000110  08000110  00010110  2**3
                  CONTENTS, ALLOC, LOAD, READONLY, CODE
  2 .rodata       00000200  080047f8  080047f8  000147f8  2**3
                  CONTENTS, ALLOC, LOAD, READONLY, DATA
  3 .ARM.extab    00000000  080049f8  080049f8  0002000c  2**0
                  CONTENTS
  4 .ARM          00000000  080049f8  080049f8  0002000c  2**0
                  CONTENTS
  5 .preinit_array 00000000  080049f8  080049f8  0002000c  2**0
                  CONTENTS, ALLOC, LOAD, DATA
  6 .init_array   00000004  080049f8  080049f8  000149f8  2**2
                  CONTENTS, ALLOC, LOAD, DATA
  7 .fini_array   00000004  080049fc  080049fc  000149fc  2**2
                  CONTENTS, ALLOC, LOAD, DATA
  8 .data         0000000c  20000000  08004a00  00020000  2**2
                  CONTENTS, ALLOC, LOAD, DATA
  9 .bss          00002184  2000000c  08004a0c  0002000c  2**2
                  ALLOC
 10 ._user_heap_stack 00000600  20002190  08004a0c  00022190  2**0
                  ALLOC
 11 .ARM.attributes 00000029  00000000  00000000  0002000c  2**0
                  CONTENTS, READONLY
 12 .comment      00000050  00000000  00000000  00020035  2**0
                  CONTENTS, READONLY
 13 .debug_frame  00000514  00000000  00000000  00020088  2**2
                  CONTENTS, READONLY, DEBUGGING, OCTETS

Disassembly of section .text:

08000110 <__do_global_dtors_aux>:
 8000110:	b510      	push	{r4, lr}
 8000112:	4c05      	ldr	r4, [pc, #20]	; (8000128 <__do_global_dtors_aux+0x18>)
 8000114:	7823      	ldrb	r3, [r4, #0]
 8000116:	b933      	cbnz	r3, 8000126 <__do_global_dtors_aux+0x16>
 8000118:	4b04      	ldr	r3, [pc, #16]	; (800012c <__do_global_dtors_aux+0x1c>)
 800011a:	b113      	cbz	r3, 8000122 <__do_global_dtors_aux+0x12>
 800011c:	4804      	ldr	r0, [pc, #16]	; (8000130 <__do_global_dtors_aux+0x20>)
 800011e:	f3af 8000 	nop.w
 8000122:	2301      	movs	r3, #1
 8000124:	7023      	strb	r3, [r4, #0]
 8000126:	bd10      	pop	{r4, pc}
 8000128:	2000000c 	.word	0x2000000c
 800012c:	00000000 	.word	0x00000000
 8000130:	080047dc 	.word	0x080047dc

08000134 <frame_dummy>:
 8000134:	b508      	push	{r3, lr}
 8000136:	4b03      	ldr	r3, [pc, #12]	; (8000144 <frame_dummy+0x10>)
 8000138:	b11b      	cbz	r3, 8000142 <frame_dummy+0xe>
 800013a:	4903      	ldr	r1, [pc, #12]	; (8000148 <frame_dummy+0x14>)
 800013c:	4803      	ldr	r0, [pc, #12]	; (800014c <frame_dummy+0x18>)
 800013e:	f3af 8000 	nop.w
 8000142:	bd08      	pop	{r3, pc}
 8000144:	00000000 	.word	0x00000000
 8000148:	20000010 	.word	0x20000010
 800014c:	080047dc 	.word	0x080047dc

08000150 <__aeabi_fmul>:
 8000150:	f04f 0cff 	mov.w	ip, #255	; 0xff
 8000154:	ea1c 52d0 	ands.w	r2, ip, r0, lsr #23
 8000158:	bf1e      	ittt	ne
 800015a:	ea1c 53d1 	andsne.w	r3, ip, r1, lsr #23
 800015e:	ea92 0f0c 	teqne	r2, ip
 8000162:	ea93 0f0c 	teqne	r3, ip
 8000166:	d06f      	beq.n	8000248 <__aeabi_fmul+0xf8>
 8000168:	441a      	add	r2, r3
 800016a:	ea80 0c01 	eor.w	ip, r0, r1
 800016e:	0240      	lsls	r0, r0, #9
 8000170:	bf18      	it	ne
 8000172:	ea5f 2141 	movsne.w	r1, r1, lsl #9
 8000176:	d01e      	beq.n	80001b6 <__aeabi_fmul+0x66>
 8000178:	f04f 6300 	mov.w	r3, #134217728	; 0x8000000
 800017c:	ea43 1050 	orr.w	r0, r3, r0, lsr #5
 8000180:	ea43 1151 	orr.w	r1, r3, r1, lsr #5
 8000184:	fba0 3101 	umull	r3, r1, r0, r1
 8000188:	f00c 4000 	and.w	r0, ip, #2147483648	; 0x80000000
 800018c:	f5b1 0f00 	cmp.w	r1, #8388608	; 0x800000
 8000190:	bf3e      	ittt	cc
 8000192:	0049      	lslcc	r1, r1, #1
 8000194:	ea41 71d3 	orrcc.w	r1, r1, r3, lsr #31
 8000198:	005b      	lslcc	r3, r3, #1
 800019a:	ea40 0001 	orr.w	r0, r0, r1
 800019e:	f162 027f 	sbc.w	r2, r2, #127	; 0x7f
 80001a2:	2afd      	cmp	r2, #253	; 0xfd
 80001a4:	d81d      	bhi.n	80001e2 <__aeabi_fmul+0x92>
 80001a6:	f1b3 4f00 	cmp.w	r3, #2147483648	; 0x80000000
 80001aa:	eb40 50c2 	adc.w	r0, r0, r2, lsl #23
 80001ae:	bf08      	it	eq
 80001b0:	f020 0001 	biceq.w	r0, r0, #1
 80001b4:	4770      	bx	lr
 80001b6:	f090 0f00 	teq	r0, #0
 80001ba:	f00c 4c00 	and.w	ip, ip, #2147483648	; 0x80000000
 80001be:	bf08      	it	eq
 80001c0:	0249      	lsleq	r1, r1, #9
 80001c2:	ea4c 2050 	orr.w	r0, ip, r0, lsr #9
 80001c6:	ea40 2051 	orr.w	r0, r0, r1, lsr #9
 80001ca:	3a7f      	subs	r2, #127	; 0x7f
 80001cc:	bfc2      	ittt	gt
 80001ce:	f1d2 03ff 	rsbsgt	r3, r2, #255	; 0xff
 80001d2:	ea40 50c2 	orrgt.w	r0, r0, r2, lsl #23
 80001d6:	4770      	bxgt	lr
 80001d8:	f440 0000 	orr.w	r0, r0, #8388608	; 0x800000
 80001dc:	f04f 0300 	mov.w	r3, #0
 80001e0:	3a01      	subs	r2, #1
 80001e2:	dc5d      	bgt.n	80002a0 <__aeabi_fmul+0x150>
 80001e4:	f112 0f19 	cmn.w	r2, #25
 80001e8:	bfdc      	itt	le
 80001ea:	f000 4000 	andle.w	r0, r0, #2147483648	; 0x80000000
 80001ee:	4770      	bxle	lr
 80001f0:	f1c2 0200 	rsb	r2, r2, #0
 80001f4:	0041      	lsls	r1, r0, #1
 80001f6:	fa21 f102 	lsr.w	r1, r1, r2
 80001fa:	f1c2 0220 	rsb	r2, r2, #32
 80001fe:	fa00 fc02 	lsl.w	ip, r0, r2
 8000202:	ea5f 0031 	movs.w	r0, r1, rrx
 8000206:	f140 0000 	adc.w	r0, r0, #0
 800020a:	ea53 034c 	orrs.w	r3, r3, ip, lsl #1
 800020e:	bf08      	it	eq
 8000210:	ea20 70dc 	biceq.w	r0, r0, ip, lsr #31
 8000214:	4770      	bx	lr
 8000216:	f092 0f00 	teq	r2, #0
 800021a:	f000 4c00 	and.w	ip, r0, #2147483648	; 0x80000000
 800021e:	bf02      	ittt	eq
 8000220:	0040      	lsleq	r0, r0, #1
 8000222:	f410 0f00 	tsteq.w	r0, #8388608	; 0x800000
 8000226:	3a01      	subeq	r2, #1
 8000228:	d0f9      	beq.n	800021e <__aeabi_fmul+0xce>
 800022a:	ea40 000c 	orr.w	r0, r0, ip
 800022e:	f093 0f00 	teq	r3, #0
 8000232:	f001 4c00 	and.w	ip, r1, #2147483648	; 0x80000000
 8000236:	bf02      	ittt	eq
 8000238:	0049      	lsleq	r1, r1, #1
 800023a:	f411 0f00 	tsteq.w	r1, #8388608	; 0x800000
 800023e:	3b01      	subeq	r3, #1
 8000240:	d0f9      	beq.n	8000236 <__aeabi_fmul+0xe6>
 8000242:	ea41 010c 	orr.w	r1, r1, ip
 8000246:	e78f      	b.n	8000168 <__aeabi_fmul+0x18>
 8000248:	ea0c 53d1 	and.w	r3, ip, r1, lsr #23
 800024c:	ea92 0f0c 	teq	r2, ip
 8000250:	bf18      	it	ne
 8000252:	ea93 0f0c 	teqne	r3, ip
 8000256:	d00a      	beq.n	800026e <__aeabi_fmul+0x11e>
 8000258:	f030 4c00 	bics.w	ip, r0, #2147483648	; 0x80000000
 800025c:	bf18      	it	ne
 800025e:	f031 4c00 	bicsne.w	ip, r1, #2147483648	; 0x80000000
 8000262:	d1d8      	bne.n	8000216 <__aeabi_fmul+0xc6>
 8000264:	ea80 0001 	eor.w	r0, r0, r1
 8000268:	f000 4000 	and.w	r0, r0, #2147483648	; 0x80000000
 800026c:	4770      	bx	lr
 800026e:	f090 0f00 	teq	r0, #0
 8000272:	bf17      	itett	ne
 8000274:	f090 4f00 	teqne	r0, #2147483648	; 0x80000000
 8000278:	4608      	moveq	r0, r1
 800027a:	f091 0f00 	teqne	r1, #0
 800027e:	f091 4f00 	teqne	r1, #2147483648	; 0x80000000
 8000282:	d014      	beq.n	80002ae <__aeabi_fmul+0x15e>
 8000284:	ea92 0f0c 	teq	r2, ip
 8000288:	d101      	bne.n	800028e <__aeabi_fmul+0x13e>
 800028a:	0242      	lsls	r2, r0, #9
 800028c:	d10f      	bne.n	80002ae <__aeabi_fmul+0x15e>
 800028e:	ea93 0f0c 	teq	r3, ip
 8000292:	d103      	bne.n	800029c <__aeabi_fmul+0x14c>
 8000294:	024b      	lsls	r3, r1, #9
 8000296:	bf18      	it	ne
 8000298:	4608      	movne	r0, r1
 800029a:	d108      	bne.n	80002ae <__aeabi_fmul+0x15e>
 800029c:	ea80 0001 	eor.w	r0, r0, r1
 80002a0:	f000 4000 	and.w	r0, r0, #2147483648	; 0x80000000
 80002a4:	f040 40fe 	orr.w	r0, r0, #2130706432	; 0x7f000000
 80002a8:	f440 0000 	orr.w	r0, r0, #8388608	; 0x800000
 80002ac:	4770      	bx	lr
 80002ae:	f040 40fe 	orr.w	r0, r0, #2130706432	; 0x7f000000
 80002b2:	f440 0040 	orr.w	r0, r0, #12582912	; 0xc00000
 80002b6:	4770      	bx	lr

080002b8 <__aeabi_drsub>:
 80002b8:	f081 4100 	eor.w	r1, r1, #2147483648	; 0x80000000
 80002bc:	e002      	b.n	80002c4 <__adddf3>
 80002be:	bf00      	nop

080002c0 <__aeabi_dsub>:
 80002c0:	f083 4300 	eor.w	r3, r3, #2147483648	; 0x80000000

080002c4 <__adddf3>:
 80002c4:	b530      	push	{r4, r5, lr}
 80002c6:	ea4f 0441 	mov.w	r4, r1, lsl #1
 80002ca:	ea4f 0543 	mov.w	r5, r3, lsl #1
 80002ce:	ea94 0f05 	teq	r4, r5
 80002d2:	bf08      	it	eq
 80002d4:	ea90 0f02 	teqeq	r0, r2
 80002d8:	bf1f      	itttt	ne
 80002da:	ea54 0c00 	orrsne.w	ip, r4, r0
 80002de:	ea55 0c02 	orrsne.w	ip, r5, r2
 80002e2:	ea7f 5c64 	mvnsne.w	ip, r4, asr #21
 80002e6:	ea7f 5c65 	mvnsne.w	ip, r5, asr #21
 80002ea:	f000 80e2 	beq.w	80004b2 <__adddf3+0x1ee>
 80002ee:	ea4f 5454 	mov.w	r4, r4, lsr #21
 80002f2:	ebd4 5555 	rsbs	r5, r4, r5, lsr #21
 80002f6:	bfb8      	it	lt
 80002f8:	426d      	neglt	r5, r5
 80002fa:	dd0c      	ble.n	8000316 <__adddf3+0x52>
 80002fc:	442c      	add	r4, r5
 80002fe:	ea80 0202 	eor.w	r2, r0, r2
 8000302:	ea81 0303 	eor.w	r3, r1, r3
 8000306:	ea82 0000 	eor.w	r0, r2, r0
 800030a:	ea83 0101 	eor.w	r1, r3, r1
 800030e:	ea80 0202 	eor.w	r2, r0, r2
 8000312:	ea81 0303 	eor.w	r3, r1, r3
 8000316:	2d36      	cmp	r5, #54	; 0x36
 8000318:	bf88      	it	hi
 800031a:	bd30      	pophi	{r4, r5, pc}
 800031c:	f011 4f00 	tst.w	r1, #2147483648	; 0x80000000
 8000320:	ea4f 3101 	mov.w	r1, r1, lsl #12
 8000324:	f44f 1c80 	mov.w	ip, #1048576	; 0x100000
 8000328:	ea4c 3111 	orr.w	r1, ip, r1, lsr #12
 800032c:	d002      	beq.n	8000334 <__adddf3+0x70>
 800032e:	4240      	negs	r0, r0
 8000330:	eb61 0141 	sbc.w	r1, r1, r1, lsl #1
 8000334:	f013 4f00 	tst.w	r3, #2147483648	; 0x80000000
 8000338:	ea4f 3303 	mov.w	r3, r3, lsl #12
 800033c:	ea4c 3313 	orr.w	r3, ip, r3, lsr #12
 8000340:	d002      	beq.n	8000348 <__adddf3+0x84>
 8000342:	4252      	negs	r2, r2
 8000344:	eb63 0343 	sbc.w	r3, r3, r3, lsl #1
 8000348:	ea94 0f05 	teq	r4, r5
 800034c:	f000 80a7 	beq.w	800049e <__adddf3+0x1da>
 8000350:	f1a4 0401 	sub.w	r4, r4, #1
 8000354:	f1d5 0e20 	rsbs	lr, r5, #32
 8000358:	db0d      	blt.n	8000376 <__adddf3+0xb2>
 800035a:	fa02 fc0e 	lsl.w	ip, r2, lr
 800035e:	fa22 f205 	lsr.w	r2, r2, r5
 8000362:	1880      	adds	r0, r0, r2
 8000364:	f141 0100 	adc.w	r1, r1, #0
 8000368:	fa03 f20e 	lsl.w	r2, r3, lr
 800036c:	1880      	adds	r0, r0, r2
 800036e:	fa43 f305 	asr.w	r3, r3, r5
 8000372:	4159      	adcs	r1, r3
 8000374:	e00e      	b.n	8000394 <__adddf3+0xd0>
 8000376:	f1a5 0520 	sub.w	r5, r5, #32
 800037a:	f10e 0e20 	add.w	lr, lr, #32
 800037e:	2a01      	cmp	r2, #1
 8000380:	fa03 fc0e 	lsl.w	ip, r3, lr
 8000384:	bf28      	it	cs
 8000386:	f04c 0c02 	orrcs.w	ip, ip, #2
 800038a:	fa43 f305 	asr.w	r3, r3, r5
 800038e:	18c0      	adds	r0, r0, r3
 8000390:	eb51 71e3 	adcs.w	r1, r1, r3, asr #31
 8000394:	f001 4500 	and.w	r5, r1, #2147483648	; 0x80000000
 8000398:	d507      	bpl.n	80003aa <__adddf3+0xe6>
 800039a:	f04f 0e00 	mov.w	lr, #0
 800039e:	f1dc 0c00 	rsbs	ip, ip, #0
 80003a2:	eb7e 0000 	sbcs.w	r0, lr, r0
 80003a6:	eb6e 0101 	sbc.w	r1, lr, r1
 80003aa:	f5b1 1f80 	cmp.w	r1, #1048576	; 0x100000
 80003ae:	d31b      	bcc.n	80003e8 <__adddf3+0x124>
 80003b0:	f5b1 1f00 	cmp.w	r1, #2097152	; 0x200000
 80003b4:	d30c      	bcc.n	80003d0 <__adddf3+0x10c>
 80003b6:	0849      	lsrs	r1, r1, #1
 80003b8:	ea5f 0030 	movs.w	r0, r0, rrx
 80003bc:	ea4f 0c3c 	mov.w	ip, ip, rrx
 80003c0:	f104 0401 	add.w	r4, r4, #1
 80003c4:	ea4f 5244 	mov.w	r2, r4, lsl #21
 80003c8:	f512 0f80 	cmn.w	r2, #4194304	; 0x400000
 80003cc:	f080 809a 	bcs.w	8000504 <__adddf3+0x240>
 80003d0:	f1bc 4f00 	cmp.w	ip, #2147483648	; 0x80000000
 80003d4:	bf08      	it	eq
 80003d6:	ea5f 0c50 	movseq.w	ip, r0, lsr #1
 80003da:	f150 0000 	adcs.w	r0, r0, #0
 80003de:	eb41 5104 	adc.w	r1, r1, r4, lsl #20
 80003e2:	ea41 0105 	orr.w	r1, r1, r5
 80003e6:	bd30      	pop	{r4, r5, pc}
 80003e8:	ea5f 0c4c 	movs.w	ip, ip, lsl #1
 80003ec:	4140      	adcs	r0, r0
 80003ee:	eb41 0101 	adc.w	r1, r1, r1
 80003f2:	3c01      	subs	r4, #1
 80003f4:	bf28      	it	cs
 80003f6:	f5b1 1f80 	cmpcs.w	r1, #1048576	; 0x100000
 80003fa:	d2e9      	bcs.n	80003d0 <__adddf3+0x10c>
 80003fc:	f091 0f00 	teq	r1, #0
 8000400:	bf04      	itt	eq
 8000402:	4601      	moveq	r1, r0
 8000404:	2000      	moveq	r0, #0
 8000406:	fab1 f381 	clz	r3, r1
 800040a:	bf08      	it	eq
 800040c:	3320      	addeq	r3, #32
 800040e:	f1a3 030b 	sub.w	r3, r3, #11
 8000412:	f1b3 0220 	subs.w	r2, r3, #32
 8000416:	da0c      	bge.n	8000432 <__adddf3+0x16e>
 8000418:	320c      	adds	r2, #12
 800041a:	dd08      	ble.n	800042e <__adddf3+0x16a>
 800041c:	f102 0c14 	add.w	ip, r2, #20
 8000420:	f1c2 020c 	rsb	r2, r2, #12
 8000424:	fa01 f00c 	lsl.w	r0, r1, ip
 8000428:	fa21 f102 	lsr.w	r1, r1, r2
 800042c:	e00c      	b.n	8000448 <__adddf3+0x184>
 800042e:	f102 0214 	add.w	r2, r2, #20
 8000432:	bfd8      	it	le
 8000434:	f1c2 0c20 	rsble	ip, r2, #32
 8000438:	fa01 f102 	lsl.w	r1, r1, r2
 800043c:	fa20 fc0c 	lsr.w	ip, r0, ip
 8000440:	bfdc      	itt	le
 8000442:	ea41 010c 	orrle.w	r1, r1, ip
 8000446:	4090      	lslle	r0, r2
 8000448:	1ae4      	subs	r4, r4, r3
 800044a:	bfa2      	ittt	ge
 800044c:	eb01 5104 	addge.w	r1, r1, r4, lsl #20
 8000450:	4329      	orrge	r1, r5
 8000452:	bd30      	popge	{r4, r5, pc}
 8000454:	ea6f 0404 	mvn.w	r4, r4
 8000458:	3c1f      	subs	r4, #31
 800045a:	da1c      	bge.n	8000496 <__adddf3+0x1d2>
 800045c:	340c      	adds	r4, #12
 800045e:	dc0e      	bgt.n	800047e <__adddf3+0x1ba>
 8000460:	f104 0414 	add.w	r4, r4, #20
 8000464:	f1c4 0220 	rsb	r2, r4, #32
 8000468:	fa20 f004 	lsr.w	r0, r0, r4
 800046c:	fa01 f302 	lsl.w	r3, r1, r2
 8000470:	ea40 0003 	orr.w	r0, r0, r3
 8000474:	fa21 f304 	lsr.w	r3, r1, r4
 8000478:	ea45 0103 	orr.w	r1, r5, r3
 800047c:	bd30      	pop	{r4, r5, pc}
 800047e:	f1c4 040c 	rsb	r4, r4, #12
 8000482:	f1c4 0220 	rsb	r2, r4, #32
 8000486:	fa20 f002 	lsr.w	r0, r0, r2
 800048a:	fa01 f304 	lsl.w	r3, r1, r4
 800048e:	ea40 0003 	orr.w	r0, r0, r3
 8000492:	4629      	mov	r1, r5
 8000494:	bd30      	pop	{r4, r5, pc}
 8000496:	fa21 f004 	lsr.w	r0, r1, r4
 800049a:	4629      	mov	r1, r5
 800049c:	bd30      	pop	{r4, r5, pc}
 800049e:	f094 0f00 	teq	r4, #0
 80004a2:	f483 1380 	eor.w	r3, r3, #1048576	; 0x100000
 80004a6:	bf06      	itte	eq
 80004a8:	f481 1180 	eoreq.w	r1, r1, #1048576	; 0x100000
 80004ac:	3401      	addeq	r4, #1
 80004ae:	3d01      	subne	r5, #1
 80004b0:	e74e      	b.n	8000350 <__adddf3+0x8c>
 80004b2:	ea7f 5c64 	mvns.w	ip, r4, asr #21
 80004b6:	bf18      	it	ne
 80004b8:	ea7f 5c65 	mvnsne.w	ip, r5, asr #21
 80004bc:	d029      	beq.n	8000512 <__adddf3+0x24e>
 80004be:	ea94 0f05 	teq	r4, r5
 80004c2:	bf08      	it	eq
 80004c4:	ea90 0f02 	teqeq	r0, r2
 80004c8:	d005      	beq.n	80004d6 <__adddf3+0x212>
 80004ca:	ea54 0c00 	orrs.w	ip, r4, r0
 80004ce:	bf04      	itt	eq
 80004d0:	4619      	moveq	r1, r3
 80004d2:	4610      	moveq	r0, r2
 80004d4:	bd30      	pop	{r4, r5, pc}
 80004d6:	ea91 0f03 	teq	r1, r3
 80004da:	bf1e      	ittt	ne
 80004dc:	2100      	movne	r1, #0
 80004de:	2000      	movne	r0, #0
 80004e0:	bd30      	popne	{r4, r5, pc}
 80004e2:	ea5f 5c54 	movs.w	ip, r4, lsr #21
 80004e6:	d105      	bne.n	80004f4 <__adddf3+0x230>
 80004e8:	0040      	lsls	r0, r0, #1
 80004ea:	4149      	adcs	r1, r1
 80004ec:	bf28      	it	cs
 80004ee:	f041 4100 	orrcs.w	r1, r1, #2147483648	; 0x80000000
 80004f2:	bd30      	pop	{r4, r5, pc}
 80004f4:	f514 0480 	adds.w	r4, r4, #4194304	; 0x400000
 80004f8:	bf3c      	itt	cc
 80004fa:	f501 1180 	addcc.w	r1, r1, #1048576	; 0x100000
 80004fe:	bd30      	popcc	{r4, r5, pc}
 8000500:	f001 4500 	and.w	r5, r1, #2147483648	; 0x80000000
 8000504:	f045 41fe 	orr.w	r1, r5, #2130706432	; 0x7f000000
 8000508:	f441 0170 	orr.w	r1, r1, #15728640	; 0xf00000
 800050c:	f04f 0000 	mov.w	r0, #0
 8000510:	bd30      	pop	{r4, r5, pc}
 8000512:	ea7f 5c64 	mvns.w	ip, r4, asr #21
 8000516:	bf1a      	itte	ne
 8000518:	4619      	movne	r1, r3
 800051a:	4610      	movne	r0, r2
 800051c:	ea7f 5c65 	mvnseq.w	ip, r5, asr #21
 8000520:	bf1c      	itt	ne
 8000522:	460b      	movne	r3, r1
 8000524:	4602      	movne	r2, r0
 8000526:	ea50 3401 	orrs.w	r4, r0, r1, lsl #12
 800052a:	bf06      	itte	eq
 800052c:	ea52 3503 	orrseq.w	r5, r2, r3, lsl #12
 8000530:	ea91 0f03 	teqeq	r1, r3
 8000534:	f441 2100 	orrne.w	r1, r1, #524288	; 0x80000
 8000538:	bd30      	pop	{r4, r5, pc}
 800053a:	bf00      	nop

0800053c <__aeabi_ui2d>:
 800053c:	f090 0f00 	teq	r0, #0
 8000540:	bf04      	itt	eq
 8000542:	2100      	moveq	r1, #0
 8000544:	4770      	bxeq	lr
 8000546:	b530      	push	{r4, r5, lr}
 8000548:	f44f 6480 	mov.w	r4, #1024	; 0x400
 800054c:	f104 0432 	add.w	r4, r4, #50	; 0x32
 8000550:	f04f 0500 	mov.w	r5, #0
 8000554:	f04f 0100 	mov.w	r1, #0
 8000558:	e750      	b.n	80003fc <__adddf3+0x138>
 800055a:	bf00      	nop

0800055c <__aeabi_i2d>:
 800055c:	f090 0f00 	teq	r0, #0
 8000560:	bf04      	itt	eq
 8000562:	2100      	moveq	r1, #0
 8000564:	4770      	bxeq	lr
 8000566:	b530      	push	{r4, r5, lr}
 8000568:	f44f 6480 	mov.w	r4, #1024	; 0x400
 800056c:	f104 0432 	add.w	r4, r4, #50	; 0x32
 8000570:	f010 4500 	ands.w	r5, r0, #2147483648	; 0x80000000
 8000574:	bf48      	it	mi
 8000576:	4240      	negmi	r0, r0
 8000578:	f04f 0100 	mov.w	r1, #0
 800057c:	e73e      	b.n	80003fc <__adddf3+0x138>
 800057e:	bf00      	nop

08000580 <__aeabi_f2d>:
 8000580:	0042      	lsls	r2, r0, #1
 8000582:	ea4f 01e2 	mov.w	r1, r2, asr #3
 8000586:	ea4f 0131 	mov.w	r1, r1, rrx
 800058a:	ea4f 7002 	mov.w	r0, r2, lsl #28
 800058e:	bf1f      	itttt	ne
 8000590:	f012 437f 	andsne.w	r3, r2, #4278190080	; 0xff000000
 8000594:	f093 4f7f 	teqne	r3, #4278190080	; 0xff000000
 8000598:	f081 5160 	eorne.w	r1, r1, #939524096	; 0x38000000
 800059c:	4770      	bxne	lr
 800059e:	f032 427f 	bics.w	r2, r2, #4278190080	; 0xff000000
 80005a2:	bf08      	it	eq
 80005a4:	4770      	bxeq	lr
 80005a6:	f093 4f7f 	teq	r3, #4278190080	; 0xff000000
 80005aa:	bf04      	itt	eq
 80005ac:	f441 2100 	orreq.w	r1, r1, #524288	; 0x80000
 80005b0:	4770      	bxeq	lr
 80005b2:	b530      	push	{r4, r5, lr}
 80005b4:	f44f 7460 	mov.w	r4, #896	; 0x380
 80005b8:	f001 4500 	and.w	r5, r1, #2147483648	; 0x80000000
 80005bc:	f021 4100 	bic.w	r1, r1, #2147483648	; 0x80000000
 80005c0:	e71c      	b.n	80003fc <__adddf3+0x138>
 80005c2:	bf00      	nop

080005c4 <__aeabi_ul2d>:
 80005c4:	ea50 0201 	orrs.w	r2, r0, r1
 80005c8:	bf08      	it	eq
 80005ca:	4770      	bxeq	lr
 80005cc:	b530      	push	{r4, r5, lr}
 80005ce:	f04f 0500 	mov.w	r5, #0
 80005d2:	e00a      	b.n	80005ea <__aeabi_l2d+0x16>

080005d4 <__aeabi_l2d>:
 80005d4:	ea50 0201 	orrs.w	r2, r0, r1
 80005d8:	bf08      	it	eq
 80005da:	4770      	bxeq	lr
 80005dc:	b530      	push	{r4, r5, lr}
 80005de:	f011 4500 	ands.w	r5, r1, #2147483648	; 0x80000000
 80005e2:	d502      	bpl.n	80005ea <__aeabi_l2d+0x16>
 80005e4:	4240      	negs	r0, r0
 80005e6:	eb61 0141 	sbc.w	r1, r1, r1, lsl #1
 80005ea:	f44f 6480 	mov.w	r4, #1024	; 0x400
 80005ee:	f104 0432 	add.w	r4, r4, #50	; 0x32
 80005f2:	ea5f 5c91 	movs.w	ip, r1, lsr #22
 80005f6:	f43f aed8 	beq.w	80003aa <__adddf3+0xe6>
 80005fa:	f04f 0203 	mov.w	r2, #3
 80005fe:	ea5f 0cdc 	movs.w	ip, ip, lsr #3
 8000602:	bf18      	it	ne
 8000604:	3203      	addne	r2, #3
 8000606:	ea5f 0cdc 	movs.w	ip, ip, lsr #3
 800060a:	bf18      	it	ne
 800060c:	3203      	addne	r2, #3
 800060e:	eb02 02dc 	add.w	r2, r2, ip, lsr #3
 8000612:	f1c2 0320 	rsb	r3, r2, #32
 8000616:	fa00 fc03 	lsl.w	ip, r0, r3
 800061a:	fa20 f002 	lsr.w	r0, r0, r2
 800061e:	fa01 fe03 	lsl.w	lr, r1, r3
 8000622:	ea40 000e 	orr.w	r0, r0, lr
 8000626:	fa21 f102 	lsr.w	r1, r1, r2
 800062a:	4414      	add	r4, r2
 800062c:	e6bd      	b.n	80003aa <__adddf3+0xe6>
 800062e:	bf00      	nop

08000630 <__aeabi_dmul>:
 8000630:	b570      	push	{r4, r5, r6, lr}
 8000632:	f04f 0cff 	mov.w	ip, #255	; 0xff
 8000636:	f44c 6ce0 	orr.w	ip, ip, #1792	; 0x700
 800063a:	ea1c 5411 	ands.w	r4, ip, r1, lsr #20
 800063e:	bf1d      	ittte	ne
 8000640:	ea1c 5513 	andsne.w	r5, ip, r3, lsr #20
 8000644:	ea94 0f0c 	teqne	r4, ip
 8000648:	ea95 0f0c 	teqne	r5, ip
 800064c:	f000 f8de 	bleq	800080c <__aeabi_dmul+0x1dc>
 8000650:	442c      	add	r4, r5
 8000652:	ea81 0603 	eor.w	r6, r1, r3
 8000656:	ea21 514c 	bic.w	r1, r1, ip, lsl #21
 800065a:	ea23 534c 	bic.w	r3, r3, ip, lsl #21
 800065e:	ea50 3501 	orrs.w	r5, r0, r1, lsl #12
 8000662:	bf18      	it	ne
 8000664:	ea52 3503 	orrsne.w	r5, r2, r3, lsl #12
 8000668:	f441 1180 	orr.w	r1, r1, #1048576	; 0x100000
 800066c:	f443 1380 	orr.w	r3, r3, #1048576	; 0x100000
 8000670:	d038      	beq.n	80006e4 <__aeabi_dmul+0xb4>
 8000672:	fba0 ce02 	umull	ip, lr, r0, r2
 8000676:	f04f 0500 	mov.w	r5, #0
 800067a:	fbe1 e502 	umlal	lr, r5, r1, r2
 800067e:	f006 4200 	and.w	r2, r6, #2147483648	; 0x80000000
 8000682:	fbe0 e503 	umlal	lr, r5, r0, r3
 8000686:	f04f 0600 	mov.w	r6, #0
 800068a:	fbe1 5603 	umlal	r5, r6, r1, r3
 800068e:	f09c 0f00 	teq	ip, #0
 8000692:	bf18      	it	ne
 8000694:	f04e 0e01 	orrne.w	lr, lr, #1
 8000698:	f1a4 04ff 	sub.w	r4, r4, #255	; 0xff
 800069c:	f5b6 7f00 	cmp.w	r6, #512	; 0x200
 80006a0:	f564 7440 	sbc.w	r4, r4, #768	; 0x300
 80006a4:	d204      	bcs.n	80006b0 <__aeabi_dmul+0x80>
 80006a6:	ea5f 0e4e 	movs.w	lr, lr, lsl #1
 80006aa:	416d      	adcs	r5, r5
 80006ac:	eb46 0606 	adc.w	r6, r6, r6
 80006b0:	ea42 21c6 	orr.w	r1, r2, r6, lsl #11
 80006b4:	ea41 5155 	orr.w	r1, r1, r5, lsr #21
 80006b8:	ea4f 20c5 	mov.w	r0, r5, lsl #11
 80006bc:	ea40 505e 	orr.w	r0, r0, lr, lsr #21
 80006c0:	ea4f 2ece 	mov.w	lr, lr, lsl #11
 80006c4:	f1b4 0cfd 	subs.w	ip, r4, #253	; 0xfd
 80006c8:	bf88      	it	hi
 80006ca:	f5bc 6fe0 	cmphi.w	ip, #1792	; 0x700
 80006ce:	d81e      	bhi.n	800070e <__aeabi_dmul+0xde>
 80006d0:	f1be 4f00 	cmp.w	lr, #2147483648	; 0x80000000
 80006d4:	bf08      	it	eq
 80006d6:	ea5f 0e50 	movseq.w	lr, r0, lsr #1
 80006da:	f150 0000 	adcs.w	r0, r0, #0
 80006de:	eb41 5104 	adc.w	r1, r1, r4, lsl #20
 80006e2:	bd70      	pop	{r4, r5, r6, pc}
 80006e4:	f006 4600 	and.w	r6, r6, #2147483648	; 0x80000000
 80006e8:	ea46 0101 	orr.w	r1, r6, r1
 80006ec:	ea40 0002 	orr.w	r0, r0, r2
 80006f0:	ea81 0103 	eor.w	r1, r1, r3
 80006f4:	ebb4 045c 	subs.w	r4, r4, ip, lsr #1
 80006f8:	bfc2      	ittt	gt
 80006fa:	ebd4 050c 	rsbsgt	r5, r4, ip
 80006fe:	ea41 5104 	orrgt.w	r1, r1, r4, lsl #20
 8000702:	bd70      	popgt	{r4, r5, r6, pc}
 8000704:	f441 1180 	orr.w	r1, r1, #1048576	; 0x100000
 8000708:	f04f 0e00 	mov.w	lr, #0
 800070c:	3c01      	subs	r4, #1
 800070e:	f300 80ab 	bgt.w	8000868 <__aeabi_dmul+0x238>
 8000712:	f114 0f36 	cmn.w	r4, #54	; 0x36
 8000716:	bfde      	ittt	le
 8000718:	2000      	movle	r0, #0
 800071a:	f001 4100 	andle.w	r1, r1, #2147483648	; 0x80000000
 800071e:	bd70      	pople	{r4, r5, r6, pc}
 8000720:	f1c4 0400 	rsb	r4, r4, #0
 8000724:	3c20      	subs	r4, #32
 8000726:	da35      	bge.n	8000794 <__aeabi_dmul+0x164>
 8000728:	340c      	adds	r4, #12
 800072a:	dc1b      	bgt.n	8000764 <__aeabi_dmul+0x134>
 800072c:	f104 0414 	add.w	r4, r4, #20
 8000730:	f1c4 0520 	rsb	r5, r4, #32
 8000734:	fa00 f305 	lsl.w	r3, r0, r5
 8000738:	fa20 f004 	lsr.w	r0, r0, r4
 800073c:	fa01 f205 	lsl.w	r2, r1, r5
 8000740:	ea40 0002 	orr.w	r0, r0, r2
 8000744:	f001 4200 	and.w	r2, r1, #2147483648	; 0x80000000
 8000748:	f021 4100 	bic.w	r1, r1, #2147483648	; 0x80000000
 800074c:	eb10 70d3 	adds.w	r0, r0, r3, lsr #31
 8000750:	fa21 f604 	lsr.w	r6, r1, r4
 8000754:	eb42 0106 	adc.w	r1, r2, r6
 8000758:	ea5e 0e43 	orrs.w	lr, lr, r3, lsl #1
 800075c:	bf08      	it	eq
 800075e:	ea20 70d3 	biceq.w	r0, r0, r3, lsr #31
 8000762:	bd70      	pop	{r4, r5, r6, pc}
 8000764:	f1c4 040c 	rsb	r4, r4, #12
 8000768:	f1c4 0520 	rsb	r5, r4, #32
 800076c:	fa00 f304 	lsl.w	r3, r0, r4
 8000770:	fa20 f005 	lsr.w	r0, r0, r5
 8000774:	fa01 f204 	lsl.w	r2, r1, r4
 8000778:	ea40 0002 	orr.w	r0, r0, r2
 800077c:	f001 4100 	and.w	r1, r1, #2147483648	; 0x80000000
 8000780:	eb10 70d3 	adds.w	r0, r0, r3, lsr #31
 8000784:	f141 0100 	adc.w	r1, r1, #0
 8000788:	ea5e 0e43 	orrs.w	lr, lr, r3, lsl #1
 800078c:	bf08      	it	eq
 800078e:	ea20 70d3 	biceq.w	r0, r0, r3, lsr #31
 8000792:	bd70      	pop	{r4, r5, r6, pc}
 8000794:	f1c4 0520 	rsb	r5, r4, #32
 8000798:	fa00 f205 	lsl.w	r2, r0, r5
 800079c:	ea4e 0e02 	orr.w	lr, lr, r2
 80007a0:	fa20 f304 	lsr.w	r3, r0, r4
 80007a4:	fa01 f205 	lsl.w	r2, r1, r5
 80007a8:	ea43 0302 	orr.w	r3, r3, r2
 80007ac:	fa21 f004 	lsr.w	r0, r1, r4
 80007b0:	f001 4100 	and.w	r1, r1, #2147483648	; 0x80000000
 80007b4:	fa21 f204 	lsr.w	r2, r1, r4
 80007b8:	ea20 0002 	bic.w	r0, r0, r2
 80007bc:	eb00 70d3 	add.w	r0, r0, r3, lsr #31
 80007c0:	ea5e 0e43 	orrs.w	lr, lr, r3, lsl #1
 80007c4:	bf08      	it	eq
 80007c6:	ea20 70d3 	biceq.w	r0, r0, r3, lsr #31
 80007ca:	bd70      	pop	{r4, r5, r6, pc}
 80007cc:	f094 0f00 	teq	r4, #0
 80007d0:	d10f      	bne.n	80007f2 <__aeabi_dmul+0x1c2>
 80007d2:	f001 4600 	and.w	r6, r1, #2147483648	; 0x80000000
 80007d6:	0040      	lsls	r0, r0, #1
 80007d8:	eb41 0101 	adc.w	r1, r1, r1
 80007dc:	f411 1f80 	tst.w	r1, #1048576	; 0x100000
 80007e0:	bf08      	it	eq
 80007e2:	3c01      	subeq	r4, #1
 80007e4:	d0f7      	beq.n	80007d6 <__aeabi_dmul+0x1a6>
 80007e6:	ea41 0106 	orr.w	r1, r1, r6
 80007ea:	f095 0f00 	teq	r5, #0
 80007ee:	bf18      	it	ne
 80007f0:	4770      	bxne	lr
 80007f2:	f003 4600 	and.w	r6, r3, #2147483648	; 0x80000000
 80007f6:	0052      	lsls	r2, r2, #1
 80007f8:	eb43 0303 	adc.w	r3, r3, r3
 80007fc:	f413 1f80 	tst.w	r3, #1048576	; 0x100000
 8000800:	bf08      	it	eq
 8000802:	3d01      	subeq	r5, #1
 8000804:	d0f7      	beq.n	80007f6 <__aeabi_dmul+0x1c6>
 8000806:	ea43 0306 	orr.w	r3, r3, r6
 800080a:	4770      	bx	lr
 800080c:	ea94 0f0c 	teq	r4, ip
 8000810:	ea0c 5513 	and.w	r5, ip, r3, lsr #20
 8000814:	bf18      	it	ne
 8000816:	ea95 0f0c 	teqne	r5, ip
 800081a:	d00c      	beq.n	8000836 <__aeabi_dmul+0x206>
 800081c:	ea50 0641 	orrs.w	r6, r0, r1, lsl #1
 8000820:	bf18      	it	ne
 8000822:	ea52 0643 	orrsne.w	r6, r2, r3, lsl #1
 8000826:	d1d1      	bne.n	80007cc <__aeabi_dmul+0x19c>
 8000828:	ea81 0103 	eor.w	r1, r1, r3
 800082c:	f001 4100 	and.w	r1, r1, #2147483648	; 0x80000000
 8000830:	f04f 0000 	mov.w	r0, #0
 8000834:	bd70      	pop	{r4, r5, r6, pc}
 8000836:	ea50 0641 	orrs.w	r6, r0, r1, lsl #1
 800083a:	bf06      	itte	eq
 800083c:	4610      	moveq	r0, r2
 800083e:	4619      	moveq	r1, r3
 8000840:	ea52 0643 	orrsne.w	r6, r2, r3, lsl #1
 8000844:	d019      	beq.n	800087a <__aeabi_dmul+0x24a>
 8000846:	ea94 0f0c 	teq	r4, ip
 800084a:	d102      	bne.n	8000852 <__aeabi_dmul+0x222>
 800084c:	ea50 3601 	orrs.w	r6, r0, r1, lsl #12
 8000850:	d113      	bne.n	800087a <__aeabi_dmul+0x24a>
 8000852:	ea95 0f0c 	teq	r5, ip
 8000856:	d105      	bne.n	8000864 <__aeabi_dmul+0x234>
 8000858:	ea52 3603 	orrs.w	r6, r2, r3, lsl #12
 800085c:	bf1c      	itt	ne
 800085e:	4610      	movne	r0, r2
 8000860:	4619      	movne	r1, r3
 8000862:	d10a      	bne.n	800087a <__aeabi_dmul+0x24a>
 8000864:	ea81 0103 	eor.w	r1, r1, r3
 8000868:	f001 4100 	and.w	r1, r1, #2147483648	; 0x80000000
 800086c:	f041 41fe 	orr.w	r1, r1, #2130706432	; 0x7f000000
 8000870:	f441 0170 	orr.w	r1, r1, #15728640	; 0xf00000
 8000874:	f04f 0000 	mov.w	r0, #0
 8000878:	bd70      	pop	{r4, r5, r6, pc}
 800087a:	f041 41fe 	orr.w	r1, r1, #2130706432	; 0x7f000000
 800087e:	f441 0178 	orr.w	r1, r1, #16252928	; 0xf80000
 8000882:	bd70      	pop	{r4, r5, r6, pc}

08000884 <__aeabi_ddiv>:
 8000884:	b570      	push	{r4, r5, r6, lr}
 8000886:	f04f 0cff 	mov.w	ip, #255	; 0xff
 800088a:	f44c 6ce0 	orr.w	ip, ip, #1792	; 0x700
 800088e:	ea1c 5411 	ands.w	r4, ip, r1, lsr #20
 8000892:	bf1d      	ittte	ne
 8000894:	ea1c 5513 	andsne.w	r5, ip, r3, lsr #20
 8000898:	ea94 0f0c 	teqne	r4, ip
 800089c:	ea95 0f0c 	teqne	r5, ip
 80008a0:	f000 f8a7 	bleq	80009f2 <__aeabi_ddiv+0x16e>
 80008a4:	eba4 0405 	sub.w	r4, r4, r5
 80008a8:	ea81 0e03 	eor.w	lr, r1, r3
 80008ac:	ea52 3503 	orrs.w	r5, r2, r3, lsl #12
 80008b0:	ea4f 3101 	mov.w	r1, r1, lsl #12
 80008b4:	f000 8088 	beq.w	80009c8 <__aeabi_ddiv+0x144>
 80008b8:	ea4f 3303 	mov.w	r3, r3, lsl #12
 80008bc:	f04f 5580 	mov.w	r5, #268435456	; 0x10000000
 80008c0:	ea45 1313 	orr.w	r3, r5, r3, lsr #4
 80008c4:	ea43 6312 	orr.w	r3, r3, r2, lsr #24
 80008c8:	ea4f 2202 	mov.w	r2, r2, lsl #8
 80008cc:	ea45 1511 	orr.w	r5, r5, r1, lsr #4
 80008d0:	ea45 6510 	orr.w	r5, r5, r0, lsr #24
 80008d4:	ea4f 2600 	mov.w	r6, r0, lsl #8
 80008d8:	f00e 4100 	and.w	r1, lr, #2147483648	; 0x80000000
 80008dc:	429d      	cmp	r5, r3
 80008de:	bf08      	it	eq
 80008e0:	4296      	cmpeq	r6, r2
 80008e2:	f144 04fd 	adc.w	r4, r4, #253	; 0xfd
 80008e6:	f504 7440 	add.w	r4, r4, #768	; 0x300
 80008ea:	d202      	bcs.n	80008f2 <__aeabi_ddiv+0x6e>
 80008ec:	085b      	lsrs	r3, r3, #1
 80008ee:	ea4f 0232 	mov.w	r2, r2, rrx
 80008f2:	1ab6      	subs	r6, r6, r2
 80008f4:	eb65 0503 	sbc.w	r5, r5, r3
 80008f8:	085b      	lsrs	r3, r3, #1
 80008fa:	ea4f 0232 	mov.w	r2, r2, rrx
 80008fe:	f44f 1080 	mov.w	r0, #1048576	; 0x100000
 8000902:	f44f 2c00 	mov.w	ip, #524288	; 0x80000
 8000906:	ebb6 0e02 	subs.w	lr, r6, r2
 800090a:	eb75 0e03 	sbcs.w	lr, r5, r3
 800090e:	bf22      	ittt	cs
 8000910:	1ab6      	subcs	r6, r6, r2
 8000912:	4675      	movcs	r5, lr
 8000914:	ea40 000c 	orrcs.w	r0, r0, ip
 8000918:	085b      	lsrs	r3, r3, #1
 800091a:	ea4f 0232 	mov.w	r2, r2, rrx
 800091e:	ebb6 0e02 	subs.w	lr, r6, r2
 8000922:	eb75 0e03 	sbcs.w	lr, r5, r3
 8000926:	bf22      	ittt	cs
 8000928:	1ab6      	subcs	r6, r6, r2
 800092a:	4675      	movcs	r5, lr
 800092c:	ea40 005c 	orrcs.w	r0, r0, ip, lsr #1
 8000930:	085b      	lsrs	r3, r3, #1
 8000932:	ea4f 0232 	mov.w	r2, r2, rrx
 8000936:	ebb6 0e02 	subs.w	lr, r6, r2
 800093a:	eb75 0e03 	sbcs.w	lr, r5, r3
 800093e:	bf22      	ittt	cs
 8000940:	1ab6      	subcs	r6, r6, r2
 8000942:	4675      	movcs	r5, lr
 8000944:	ea40 009c 	orrcs.w	r0, r0, ip, lsr #2
 8000948:	085b      	lsrs	r3, r3, #1
 800094a:	ea4f 0232 	mov.w	r2, r2, rrx
 800094e:	ebb6 0e02 	subs.w	lr, r6, r2
 8000952:	eb75 0e03 	sbcs.w	lr, r5, r3
 8000956:	bf22      	ittt	cs
 8000958:	1ab6      	subcs	r6, r6, r2
 800095a:	4675      	movcs	r5, lr
 800095c:	ea40 00dc 	orrcs.w	r0, r0, ip, lsr #3
 8000960:	ea55 0e06 	orrs.w	lr, r5, r6
 8000964:	d018      	beq.n	8000998 <__aeabi_ddiv+0x114>
 8000966:	ea4f 1505 	mov.w	r5, r5, lsl #4
 800096a:	ea45 7516 	orr.w	r5, r5, r6, lsr #28
 800096e:	ea4f 1606 	mov.w	r6, r6, lsl #4
 8000972:	ea4f 03c3 	mov.w	r3, r3, lsl #3
 8000976:	ea43 7352 	orr.w	r3, r3, r2, lsr #29
 800097a:	ea4f 02c2 	mov.w	r2, r2, lsl #3
 800097e:	ea5f 1c1c 	movs.w	ip, ip, lsr #4
 8000982:	d1c0      	bne.n	8000906 <__aeabi_ddiv+0x82>
 8000984:	f411 1f80 	tst.w	r1, #1048576	; 0x100000
 8000988:	d10b      	bne.n	80009a2 <__aeabi_ddiv+0x11e>
 800098a:	ea41 0100 	orr.w	r1, r1, r0
 800098e:	f04f 0000 	mov.w	r0, #0
 8000992:	f04f 4c00 	mov.w	ip, #2147483648	; 0x80000000
 8000996:	e7b6      	b.n	8000906 <__aeabi_ddiv+0x82>
 8000998:	f411 1f80 	tst.w	r1, #1048576	; 0x100000
 800099c:	bf04      	itt	eq
 800099e:	4301      	orreq	r1, r0
 80009a0:	2000      	moveq	r0, #0
 80009a2:	f1b4 0cfd 	subs.w	ip, r4, #253	; 0xfd
 80009a6:	bf88      	it	hi
 80009a8:	f5bc 6fe0 	cmphi.w	ip, #1792	; 0x700
 80009ac:	f63f aeaf 	bhi.w	800070e <__aeabi_dmul+0xde>
 80009b0:	ebb5 0c03 	subs.w	ip, r5, r3
 80009b4:	bf04      	itt	eq
 80009b6:	ebb6 0c02 	subseq.w	ip, r6, r2
 80009ba:	ea5f 0c50 	movseq.w	ip, r0, lsr #1
 80009be:	f150 0000 	adcs.w	r0, r0, #0
 80009c2:	eb41 5104 	adc.w	r1, r1, r4, lsl #20
 80009c6:	bd70      	pop	{r4, r5, r6, pc}
 80009c8:	f00e 4e00 	and.w	lr, lr, #2147483648	; 0x80000000
 80009cc:	ea4e 3111 	orr.w	r1, lr, r1, lsr #12
 80009d0:	eb14 045c 	adds.w	r4, r4, ip, lsr #1
 80009d4:	bfc2      	ittt	gt
 80009d6:	ebd4 050c 	rsbsgt	r5, r4, ip
 80009da:	ea41 5104 	orrgt.w	r1, r1, r4, lsl #20
 80009de:	bd70      	popgt	{r4, r5, r6, pc}
 80009e0:	f441 1180 	orr.w	r1, r1, #1048576	; 0x100000
 80009e4:	f04f 0e00 	mov.w	lr, #0
 80009e8:	3c01      	subs	r4, #1
 80009ea:	e690      	b.n	800070e <__aeabi_dmul+0xde>
 80009ec:	ea45 0e06 	orr.w	lr, r5, r6
 80009f0:	e68d      	b.n	800070e <__aeabi_dmul+0xde>
 80009f2:	ea0c 5513 	and.w	r5, ip, r3, lsr #20
 80009f6:	ea94 0f0c 	teq	r4, ip
 80009fa:	bf08      	it	eq
 80009fc:	ea95 0f0c 	teqeq	r5, ip
 8000a00:	f43f af3b 	beq.w	800087a <__aeabi_dmul+0x24a>
 8000a04:	ea94 0f0c 	teq	r4, ip
 8000a08:	d10a      	bne.n	8000a20 <__aeabi_ddiv+0x19c>
 8000a0a:	ea50 3401 	orrs.w	r4, r0, r1, lsl #12
 8000a0e:	f47f af34 	bne.w	800087a <__aeabi_dmul+0x24a>
 8000a12:	ea95 0f0c 	teq	r5, ip
 8000a16:	f47f af25 	bne.w	8000864 <__aeabi_dmul+0x234>
 8000a1a:	4610      	mov	r0, r2
 8000a1c:	4619      	mov	r1, r3
 8000a1e:	e72c      	b.n	800087a <__aeabi_dmul+0x24a>
 8000a20:	ea95 0f0c 	teq	r5, ip
 8000a24:	d106      	bne.n	8000a34 <__aeabi_ddiv+0x1b0>
 8000a26:	ea52 3503 	orrs.w	r5, r2, r3, lsl #12
 8000a2a:	f43f aefd 	beq.w	8000828 <__aeabi_dmul+0x1f8>
 8000a2e:	4610      	mov	r0, r2
 8000a30:	4619      	mov	r1, r3
 8000a32:	e722      	b.n	800087a <__aeabi_dmul+0x24a>
 8000a34:	ea50 0641 	orrs.w	r6, r0, r1, lsl #1
 8000a38:	bf18      	it	ne
 8000a3a:	ea52 0643 	orrsne.w	r6, r2, r3, lsl #1
 8000a3e:	f47f aec5 	bne.w	80007cc <__aeabi_dmul+0x19c>
 8000a42:	ea50 0441 	orrs.w	r4, r0, r1, lsl #1
 8000a46:	f47f af0d 	bne.w	8000864 <__aeabi_dmul+0x234>
 8000a4a:	ea52 0543 	orrs.w	r5, r2, r3, lsl #1
 8000a4e:	f47f aeeb 	bne.w	8000828 <__aeabi_dmul+0x1f8>
 8000a52:	e712      	b.n	800087a <__aeabi_dmul+0x24a>

08000a54 <__gedf2>:
 8000a54:	f04f 3cff 	mov.w	ip, #4294967295
 8000a58:	e006      	b.n	8000a68 <__cmpdf2+0x4>
 8000a5a:	bf00      	nop

08000a5c <__ledf2>:
 8000a5c:	f04f 0c01 	mov.w	ip, #1
 8000a60:	e002      	b.n	8000a68 <__cmpdf2+0x4>
 8000a62:	bf00      	nop

08000a64 <__cmpdf2>:
 8000a64:	f04f 0c01 	mov.w	ip, #1
 8000a68:	f84d cd04 	str.w	ip, [sp, #-4]!
 8000a6c:	ea4f 0c41 	mov.w	ip, r1, lsl #1
 8000a70:	ea7f 5c6c 	mvns.w	ip, ip, asr #21
 8000a74:	ea4f 0c43 	mov.w	ip, r3, lsl #1
 8000a78:	bf18      	it	ne
 8000a7a:	ea7f 5c6c 	mvnsne.w	ip, ip, asr #21
 8000a7e:	d01b      	beq.n	8000ab8 <__cmpdf2+0x54>
 8000a80:	b001      	add	sp, #4
 8000a82:	ea50 0c41 	orrs.w	ip, r0, r1, lsl #1
 8000a86:	bf0c      	ite	eq
 8000a88:	ea52 0c43 	orrseq.w	ip, r2, r3, lsl #1
 8000a8c:	ea91 0f03 	teqne	r1, r3
 8000a90:	bf02      	ittt	eq
 8000a92:	ea90 0f02 	teqeq	r0, r2
 8000a96:	2000      	moveq	r0, #0
 8000a98:	4770      	bxeq	lr
 8000a9a:	f110 0f00 	cmn.w	r0, #0
 8000a9e:	ea91 0f03 	teq	r1, r3
 8000aa2:	bf58      	it	pl
 8000aa4:	4299      	cmppl	r1, r3
 8000aa6:	bf08      	it	eq
 8000aa8:	4290      	cmpeq	r0, r2
 8000aaa:	bf2c      	ite	cs
 8000aac:	17d8      	asrcs	r0, r3, #31
 8000aae:	ea6f 70e3 	mvncc.w	r0, r3, asr #31
 8000ab2:	f040 0001 	orr.w	r0, r0, #1
 8000ab6:	4770      	bx	lr
 8000ab8:	ea4f 0c41 	mov.w	ip, r1, lsl #1
 8000abc:	ea7f 5c6c 	mvns.w	ip, ip, asr #21
 8000ac0:	d102      	bne.n	8000ac8 <__cmpdf2+0x64>
 8000ac2:	ea50 3c01 	orrs.w	ip, r0, r1, lsl #12
 8000ac6:	d107      	bne.n	8000ad8 <__cmpdf2+0x74>
 8000ac8:	ea4f 0c43 	mov.w	ip, r3, lsl #1
 8000acc:	ea7f 5c6c 	mvns.w	ip, ip, asr #21
 8000ad0:	d1d6      	bne.n	8000a80 <__cmpdf2+0x1c>
 8000ad2:	ea52 3c03 	orrs.w	ip, r2, r3, lsl #12
 8000ad6:	d0d3      	beq.n	8000a80 <__cmpdf2+0x1c>
 8000ad8:	f85d 0b04 	ldr.w	r0, [sp], #4
 8000adc:	4770      	bx	lr
 8000ade:	bf00      	nop

08000ae0 <__aeabi_cdrcmple>:
 8000ae0:	4684      	mov	ip, r0
 8000ae2:	4610      	mov	r0, r2
 8000ae4:	4662      	mov	r2, ip
 8000ae6:	468c      	mov	ip, r1
 8000ae8:	4619      	mov	r1, r3
 8000aea:	4663      	mov	r3, ip
 8000aec:	e000      	b.n	8000af0 <__aeabi_cdcmpeq>
 8000aee:	bf00      	nop

08000af0 <__aeabi_cdcmpeq>:
 8000af0:	b501      	push	{r0, lr}
 8000af2:	f7ff ffb7 	bl	8000a64 <__cmpdf2>
 8000af6:	2800      	cmp	r0, #0
 8000af8:	bf48      	it	mi
 8000afa:	f110 0f00 	cmnmi.w	r0, #0
 8000afe:	bd01      	pop	{r0, pc}

08000b00 <__aeabi_dcmpeq>:
 8000b00:	f84d ed08 	str.w	lr, [sp, #-8]!
 8000b04:	f7ff fff4 	bl	8000af0 <__aeabi_cdcmpeq>
 8000b08:	bf0c      	ite	eq
 8000b0a:	2001      	moveq	r0, #1
 8000b0c:	2000      	movne	r0, #0
 8000b0e:	f85d fb08 	ldr.w	pc, [sp], #8
 8000b12:	bf00      	nop

08000b14 <__aeabi_dcmplt>:
 8000b14:	f84d ed08 	str.w	lr, [sp, #-8]!
 8000b18:	f7ff ffea 	bl	8000af0 <__aeabi_cdcmpeq>
 8000b1c:	bf34      	ite	cc
 8000b1e:	2001      	movcc	r0, #1
 8000b20:	2000      	movcs	r0, #0
 8000b22:	f85d fb08 	ldr.w	pc, [sp], #8
 8000b26:	bf00      	nop

08000b28 <__aeabi_dcmple>:
 8000b28:	f84d ed08 	str.w	lr, [sp, #-8]!
 8000b2c:	f7ff ffe0 	bl	8000af0 <__aeabi_cdcmpeq>
 8000b30:	bf94      	ite	ls
 8000b32:	2001      	movls	r0, #1
 8000b34:	2000      	movhi	r0, #0
 8000b36:	f85d fb08 	ldr.w	pc, [sp], #8
 8000b3a:	bf00      	nop

08000b3c <__aeabi_dcmpge>:
 8000b3c:	f84d ed08 	str.w	lr, [sp, #-8]!
 8000b40:	f7ff ffce 	bl	8000ae0 <__aeabi_cdrcmple>
 8000b44:	bf94      	ite	ls
 8000b46:	2001      	movls	r0, #1
 8000b48:	2000      	movhi	r0, #0
 8000b4a:	f85d fb08 	ldr.w	pc, [sp], #8
 8000b4e:	bf00      	nop

08000b50 <__aeabi_dcmpgt>:
 8000b50:	f84d ed08 	str.w	lr, [sp, #-8]!
 8000b54:	f7ff ffc4 	bl	8000ae0 <__aeabi_cdrcmple>
 8000b58:	bf34      	ite	cc
 8000b5a:	2001      	movcc	r0, #1
 8000b5c:	2000      	movcs	r0, #0
 8000b5e:	f85d fb08 	ldr.w	pc, [sp], #8
 8000b62:	bf00      	nop

08000b64 <__aeabi_d2iz>:
 8000b64:	ea4f 0241 	mov.w	r2, r1, lsl #1
 8000b68:	f512 1200 	adds.w	r2, r2, #2097152	; 0x200000
 8000b6c:	d215      	bcs.n	8000b9a <__aeabi_d2iz+0x36>
 8000b6e:	d511      	bpl.n	8000b94 <__aeabi_d2iz+0x30>
 8000b70:	f46f 7378 	mvn.w	r3, #992	; 0x3e0
 8000b74:	ebb3 5262 	subs.w	r2, r3, r2, asr #21
 8000b78:	d912      	bls.n	8000ba0 <__aeabi_d2iz+0x3c>
 8000b7a:	ea4f 23c1 	mov.w	r3, r1, lsl #11
 8000b7e:	f043 4300 	orr.w	r3, r3, #2147483648	; 0x80000000
 8000b82:	ea43 5350 	orr.w	r3, r3, r0, lsr #21
 8000b86:	f011 4f00 	tst.w	r1, #2147483648	; 0x80000000
 8000b8a:	fa23 f002 	lsr.w	r0, r3, r2
 8000b8e:	bf18      	it	ne
 8000b90:	4240      	negne	r0, r0
 8000b92:	4770      	bx	lr
 8000b94:	f04f 0000 	mov.w	r0, #0
 8000b98:	4770      	bx	lr
 8000b9a:	ea50 3001 	orrs.w	r0, r0, r1, lsl #12
 8000b9e:	d105      	bne.n	8000bac <__aeabi_d2iz+0x48>
 8000ba0:	f011 4000 	ands.w	r0, r1, #2147483648	; 0x80000000
 8000ba4:	bf08      	it	eq
 8000ba6:	f06f 4000 	mvneq.w	r0, #2147483648	; 0x80000000
 8000baa:	4770      	bx	lr
 8000bac:	f04f 0000 	mov.w	r0, #0
 8000bb0:	4770      	bx	lr
 8000bb2:	bf00      	nop

08000bb4 <__aeabi_d2uiz>:
 8000bb4:	004a      	lsls	r2, r1, #1
 8000bb6:	d211      	bcs.n	8000bdc <__aeabi_d2uiz+0x28>
 8000bb8:	f512 1200 	adds.w	r2, r2, #2097152	; 0x200000
 8000bbc:	d211      	bcs.n	8000be2 <__aeabi_d2uiz+0x2e>
 8000bbe:	d50d      	bpl.n	8000bdc <__aeabi_d2uiz+0x28>
 8000bc0:	f46f 7378 	mvn.w	r3, #992	; 0x3e0
 8000bc4:	ebb3 5262 	subs.w	r2, r3, r2, asr #21
 8000bc8:	d40e      	bmi.n	8000be8 <__aeabi_d2uiz+0x34>
 8000bca:	ea4f 23c1 	mov.w	r3, r1, lsl #11
 8000bce:	f043 4300 	orr.w	r3, r3, #2147483648	; 0x80000000
 8000bd2:	ea43 5350 	orr.w	r3, r3, r0, lsr #21
 8000bd6:	fa23 f002 	lsr.w	r0, r3, r2
 8000bda:	4770      	bx	lr
 8000bdc:	f04f 0000 	mov.w	r0, #0
 8000be0:	4770      	bx	lr
 8000be2:	ea50 3001 	orrs.w	r0, r0, r1, lsl #12
 8000be6:	d102      	bne.n	8000bee <__aeabi_d2uiz+0x3a>
 8000be8:	f04f 30ff 	mov.w	r0, #4294967295
 8000bec:	4770      	bx	lr
 8000bee:	f04f 0000 	mov.w	r0, #0
 8000bf2:	4770      	bx	lr

08000bf4 <__aeabi_d2f>:
 8000bf4:	ea4f 0241 	mov.w	r2, r1, lsl #1
 8000bf8:	f1b2 43e0 	subs.w	r3, r2, #1879048192	; 0x70000000
 8000bfc:	bf24      	itt	cs
 8000bfe:	f5b3 1c00 	subscs.w	ip, r3, #2097152	; 0x200000
 8000c02:	f1dc 5cfe 	rsbscs	ip, ip, #532676608	; 0x1fc00000
 8000c06:	d90d      	bls.n	8000c24 <__aeabi_d2f+0x30>
 8000c08:	f001 4c00 	and.w	ip, r1, #2147483648	; 0x80000000
 8000c0c:	ea4f 02c0 	mov.w	r2, r0, lsl #3
 8000c10:	ea4c 7050 	orr.w	r0, ip, r0, lsr #29
 8000c14:	f1b2 4f00 	cmp.w	r2, #2147483648	; 0x80000000
 8000c18:	eb40 0083 	adc.w	r0, r0, r3, lsl #2
 8000c1c:	bf08      	it	eq
 8000c1e:	f020 0001 	biceq.w	r0, r0, #1
 8000c22:	4770      	bx	lr
 8000c24:	f011 4f80 	tst.w	r1, #1073741824	; 0x40000000
 8000c28:	d121      	bne.n	8000c6e <__aeabi_d2f+0x7a>
 8000c2a:	f113 7238 	adds.w	r2, r3, #48234496	; 0x2e00000
 8000c2e:	bfbc      	itt	lt
 8000c30:	f001 4000 	andlt.w	r0, r1, #2147483648	; 0x80000000
 8000c34:	4770      	bxlt	lr
 8000c36:	f441 1180 	orr.w	r1, r1, #1048576	; 0x100000
 8000c3a:	ea4f 5252 	mov.w	r2, r2, lsr #21
 8000c3e:	f1c2 0218 	rsb	r2, r2, #24
 8000c42:	f1c2 0c20 	rsb	ip, r2, #32
 8000c46:	fa10 f30c 	lsls.w	r3, r0, ip
 8000c4a:	fa20 f002 	lsr.w	r0, r0, r2
 8000c4e:	bf18      	it	ne
 8000c50:	f040 0001 	orrne.w	r0, r0, #1
 8000c54:	ea4f 23c1 	mov.w	r3, r1, lsl #11
 8000c58:	ea4f 23d3 	mov.w	r3, r3, lsr #11
 8000c5c:	fa03 fc0c 	lsl.w	ip, r3, ip
 8000c60:	ea40 000c 	orr.w	r0, r0, ip
 8000c64:	fa23 f302 	lsr.w	r3, r3, r2
 8000c68:	ea4f 0343 	mov.w	r3, r3, lsl #1
 8000c6c:	e7cc      	b.n	8000c08 <__aeabi_d2f+0x14>
 8000c6e:	ea7f 5362 	mvns.w	r3, r2, asr #21
 8000c72:	d107      	bne.n	8000c84 <__aeabi_d2f+0x90>
 8000c74:	ea50 3301 	orrs.w	r3, r0, r1, lsl #12
 8000c78:	bf1e      	ittt	ne
 8000c7a:	f04f 40fe 	movne.w	r0, #2130706432	; 0x7f000000
 8000c7e:	f440 0040 	orrne.w	r0, r0, #12582912	; 0xc00000
 8000c82:	4770      	bxne	lr
 8000c84:	f001 4000 	and.w	r0, r1, #2147483648	; 0x80000000
 8000c88:	f040 40fe 	orr.w	r0, r0, #2130706432	; 0x7f000000
 8000c8c:	f440 0000 	orr.w	r0, r0, #8388608	; 0x800000
 8000c90:	4770      	bx	lr
 8000c92:	bf00      	nop

08000c94 <__aeabi_frsub>:
 8000c94:	f080 4000 	eor.w	r0, r0, #2147483648	; 0x80000000
 8000c98:	e002      	b.n	8000ca0 <__addsf3>
 8000c9a:	bf00      	nop

08000c9c <__aeabi_fsub>:
 8000c9c:	f081 4100 	eor.w	r1, r1, #2147483648	; 0x80000000

08000ca0 <__addsf3>:
 8000ca0:	0042      	lsls	r2, r0, #1
 8000ca2:	bf1f      	itttt	ne
 8000ca4:	ea5f 0341 	movsne.w	r3, r1, lsl #1
 8000ca8:	ea92 0f03 	teqne	r2, r3
 8000cac:	ea7f 6c22 	mvnsne.w	ip, r2, asr #24
 8000cb0:	ea7f 6c23 	mvnsne.w	ip, r3, asr #24
 8000cb4:	d06a      	beq.n	8000d8c <__addsf3+0xec>
 8000cb6:	ea4f 6212 	mov.w	r2, r2, lsr #24
 8000cba:	ebd2 6313 	rsbs	r3, r2, r3, lsr #24
 8000cbe:	bfc1      	itttt	gt
 8000cc0:	18d2      	addgt	r2, r2, r3
 8000cc2:	4041      	eorgt	r1, r0
 8000cc4:	4048      	eorgt	r0, r1
 8000cc6:	4041      	eorgt	r1, r0
 8000cc8:	bfb8      	it	lt
 8000cca:	425b      	neglt	r3, r3
 8000ccc:	2b19      	cmp	r3, #25
 8000cce:	bf88      	it	hi
 8000cd0:	4770      	bxhi	lr
 8000cd2:	f010 4f00 	tst.w	r0, #2147483648	; 0x80000000
 8000cd6:	f440 0000 	orr.w	r0, r0, #8388608	; 0x800000
 8000cda:	f020 407f 	bic.w	r0, r0, #4278190080	; 0xff000000
 8000cde:	bf18      	it	ne
 8000ce0:	4240      	negne	r0, r0
 8000ce2:	f011 4f00 	tst.w	r1, #2147483648	; 0x80000000
 8000ce6:	f441 0100 	orr.w	r1, r1, #8388608	; 0x800000
 8000cea:	f021 417f 	bic.w	r1, r1, #4278190080	; 0xff000000
 8000cee:	bf18      	it	ne
 8000cf0:	4249      	negne	r1, r1
 8000cf2:	ea92 0f03 	teq	r2, r3
 8000cf6:	d03f      	beq.n	8000d78 <__addsf3+0xd8>
 8000cf8:	f1a2 0201 	sub.w	r2, r2, #1
 8000cfc:	fa41 fc03 	asr.w	ip, r1, r3
 8000d00:	eb10 000c 	adds.w	r0, r0, ip
 8000d04:	f1c3 0320 	rsb	r3, r3, #32
 8000d08:	fa01 f103 	lsl.w	r1, r1, r3
 8000d0c:	f000 4300 	and.w	r3, r0, #2147483648	; 0x80000000
 8000d10:	d502      	bpl.n	8000d18 <__addsf3+0x78>
 8000d12:	4249      	negs	r1, r1
 8000d14:	eb60 0040 	sbc.w	r0, r0, r0, lsl #1
 8000d18:	f5b0 0f00 	cmp.w	r0, #8388608	; 0x800000
 8000d1c:	d313      	bcc.n	8000d46 <__addsf3+0xa6>
 8000d1e:	f1b0 7f80 	cmp.w	r0, #16777216	; 0x1000000
 8000d22:	d306      	bcc.n	8000d32 <__addsf3+0x92>
 8000d24:	0840      	lsrs	r0, r0, #1
 8000d26:	ea4f 0131 	mov.w	r1, r1, rrx
 8000d2a:	f102 0201 	add.w	r2, r2, #1
 8000d2e:	2afe      	cmp	r2, #254	; 0xfe
 8000d30:	d251      	bcs.n	8000dd6 <__addsf3+0x136>
 8000d32:	f1b1 4f00 	cmp.w	r1, #2147483648	; 0x80000000
 8000d36:	eb40 50c2 	adc.w	r0, r0, r2, lsl #23
 8000d3a:	bf08      	it	eq
 8000d3c:	f020 0001 	biceq.w	r0, r0, #1
 8000d40:	ea40 0003 	orr.w	r0, r0, r3
 8000d44:	4770      	bx	lr
 8000d46:	0049      	lsls	r1, r1, #1
 8000d48:	eb40 0000 	adc.w	r0, r0, r0
 8000d4c:	3a01      	subs	r2, #1
 8000d4e:	bf28      	it	cs
 8000d50:	f5b0 0f00 	cmpcs.w	r0, #8388608	; 0x800000
 8000d54:	d2ed      	bcs.n	8000d32 <__addsf3+0x92>
 8000d56:	fab0 fc80 	clz	ip, r0
 8000d5a:	f1ac 0c08 	sub.w	ip, ip, #8
 8000d5e:	ebb2 020c 	subs.w	r2, r2, ip
 8000d62:	fa00 f00c 	lsl.w	r0, r0, ip
 8000d66:	bfaa      	itet	ge
 8000d68:	eb00 50c2 	addge.w	r0, r0, r2, lsl #23
 8000d6c:	4252      	neglt	r2, r2
 8000d6e:	4318      	orrge	r0, r3
 8000d70:	bfbc      	itt	lt
 8000d72:	40d0      	lsrlt	r0, r2
 8000d74:	4318      	orrlt	r0, r3
 8000d76:	4770      	bx	lr
 8000d78:	f092 0f00 	teq	r2, #0
 8000d7c:	f481 0100 	eor.w	r1, r1, #8388608	; 0x800000
 8000d80:	bf06      	itte	eq
 8000d82:	f480 0000 	eoreq.w	r0, r0, #8388608	; 0x800000
 8000d86:	3201      	addeq	r2, #1
 8000d88:	3b01      	subne	r3, #1
 8000d8a:	e7b5      	b.n	8000cf8 <__addsf3+0x58>
 8000d8c:	ea4f 0341 	mov.w	r3, r1, lsl #1
 8000d90:	ea7f 6c22 	mvns.w	ip, r2, asr #24
 8000d94:	bf18      	it	ne
 8000d96:	ea7f 6c23 	mvnsne.w	ip, r3, asr #24
 8000d9a:	d021      	beq.n	8000de0 <__addsf3+0x140>
 8000d9c:	ea92 0f03 	teq	r2, r3
 8000da0:	d004      	beq.n	8000dac <__addsf3+0x10c>
 8000da2:	f092 0f00 	teq	r2, #0
 8000da6:	bf08      	it	eq
 8000da8:	4608      	moveq	r0, r1
 8000daa:	4770      	bx	lr
 8000dac:	ea90 0f01 	teq	r0, r1
 8000db0:	bf1c      	itt	ne
 8000db2:	2000      	movne	r0, #0
 8000db4:	4770      	bxne	lr
 8000db6:	f012 4f7f 	tst.w	r2, #4278190080	; 0xff000000
 8000dba:	d104      	bne.n	8000dc6 <__addsf3+0x126>
 8000dbc:	0040      	lsls	r0, r0, #1
 8000dbe:	bf28      	it	cs
 8000dc0:	f040 4000 	orrcs.w	r0, r0, #2147483648	; 0x80000000
 8000dc4:	4770      	bx	lr
 8000dc6:	f112 7200 	adds.w	r2, r2, #33554432	; 0x2000000
 8000dca:	bf3c      	itt	cc
 8000dcc:	f500 0000 	addcc.w	r0, r0, #8388608	; 0x800000
 8000dd0:	4770      	bxcc	lr
 8000dd2:	f000 4300 	and.w	r3, r0, #2147483648	; 0x80000000
 8000dd6:	f043 40fe 	orr.w	r0, r3, #2130706432	; 0x7f000000
 8000dda:	f440 0000 	orr.w	r0, r0, #8388608	; 0x800000
 8000dde:	4770      	bx	lr
 8000de0:	ea7f 6222 	mvns.w	r2, r2, asr #24
 8000de4:	bf16      	itet	ne
 8000de6:	4608      	movne	r0, r1
 8000de8:	ea7f 6323 	mvnseq.w	r3, r3, asr #24
 8000dec:	4601      	movne	r1, r0
 8000dee:	0242      	lsls	r2, r0, #9
 8000df0:	bf06      	itte	eq
 8000df2:	ea5f 2341 	movseq.w	r3, r1, lsl #9
 8000df6:	ea90 0f01 	teqeq	r0, r1
 8000dfa:	f440 0080 	orrne.w	r0, r0, #4194304	; 0x400000
 8000dfe:	4770      	bx	lr

08000e00 <__aeabi_ui2f>:
 8000e00:	f04f 0300 	mov.w	r3, #0
 8000e04:	e004      	b.n	8000e10 <__aeabi_i2f+0x8>
 8000e06:	bf00      	nop

08000e08 <__aeabi_i2f>:
 8000e08:	f010 4300 	ands.w	r3, r0, #2147483648	; 0x80000000
 8000e0c:	bf48      	it	mi
 8000e0e:	4240      	negmi	r0, r0
 8000e10:	ea5f 0c00 	movs.w	ip, r0
 8000e14:	bf08      	it	eq
 8000e16:	4770      	bxeq	lr
 8000e18:	f043 4396 	orr.w	r3, r3, #1258291200	; 0x4b000000
 8000e1c:	4601      	mov	r1, r0
 8000e1e:	f04f 0000 	mov.w	r0, #0
 8000e22:	e01c      	b.n	8000e5e <__aeabi_l2f+0x2a>

08000e24 <__aeabi_ul2f>:
 8000e24:	ea50 0201 	orrs.w	r2, r0, r1
 8000e28:	bf08      	it	eq
 8000e2a:	4770      	bxeq	lr
 8000e2c:	f04f 0300 	mov.w	r3, #0
 8000e30:	e00a      	b.n	8000e48 <__aeabi_l2f+0x14>
 8000e32:	bf00      	nop

08000e34 <__aeabi_l2f>:
 8000e34:	ea50 0201 	orrs.w	r2, r0, r1
 8000e38:	bf08      	it	eq
 8000e3a:	4770      	bxeq	lr
 8000e3c:	f011 4300 	ands.w	r3, r1, #2147483648	; 0x80000000
 8000e40:	d502      	bpl.n	8000e48 <__aeabi_l2f+0x14>
 8000e42:	4240      	negs	r0, r0
 8000e44:	eb61 0141 	sbc.w	r1, r1, r1, lsl #1
 8000e48:	ea5f 0c01 	movs.w	ip, r1
 8000e4c:	bf02      	ittt	eq
 8000e4e:	4684      	moveq	ip, r0
 8000e50:	4601      	moveq	r1, r0
 8000e52:	2000      	moveq	r0, #0
 8000e54:	f043 43b6 	orr.w	r3, r3, #1526726656	; 0x5b000000
 8000e58:	bf08      	it	eq
 8000e5a:	f1a3 5380 	subeq.w	r3, r3, #268435456	; 0x10000000
 8000e5e:	f5a3 0300 	sub.w	r3, r3, #8388608	; 0x800000
 8000e62:	fabc f28c 	clz	r2, ip
 8000e66:	3a08      	subs	r2, #8
 8000e68:	eba3 53c2 	sub.w	r3, r3, r2, lsl #23
 8000e6c:	db10      	blt.n	8000e90 <__aeabi_l2f+0x5c>
 8000e6e:	fa01 fc02 	lsl.w	ip, r1, r2
 8000e72:	4463      	add	r3, ip
 8000e74:	fa00 fc02 	lsl.w	ip, r0, r2
 8000e78:	f1c2 0220 	rsb	r2, r2, #32
 8000e7c:	f1bc 4f00 	cmp.w	ip, #2147483648	; 0x80000000
 8000e80:	fa20 f202 	lsr.w	r2, r0, r2
 8000e84:	eb43 0002 	adc.w	r0, r3, r2
 8000e88:	bf08      	it	eq
 8000e8a:	f020 0001 	biceq.w	r0, r0, #1
 8000e8e:	4770      	bx	lr
 8000e90:	f102 0220 	add.w	r2, r2, #32
 8000e94:	fa01 fc02 	lsl.w	ip, r1, r2
 8000e98:	f1c2 0220 	rsb	r2, r2, #32
 8000e9c:	ea50 004c 	orrs.w	r0, r0, ip, lsl #1
 8000ea0:	fa21 f202 	lsr.w	r2, r1, r2
 8000ea4:	eb43 0002 	adc.w	r0, r3, r2
 8000ea8:	bf08      	it	eq
 8000eaa:	ea20 70dc 	biceq.w	r0, r0, ip, lsr #31
 8000eae:	4770      	bx	lr

08000eb0 <timerSettings>:
 8000eb0:	b510      	push	{r4, lr}
 8000eb2:	4c15      	ldr	r4, [pc, #84]	; (8000f08 <timerSettings+0x58>)
 8000eb4:	2100      	movs	r1, #0
 8000eb6:	4620      	mov	r0, r4
 8000eb8:	f002 f992 	bl	80031e0 <HAL_TIM_IC_Start>
 8000ebc:	2104      	movs	r1, #4
 8000ebe:	4620      	mov	r0, r4
 8000ec0:	f002 f98e 	bl	80031e0 <HAL_TIM_IC_Start>
 8000ec4:	2108      	movs	r1, #8
 8000ec6:	4620      	mov	r0, r4
 8000ec8:	f002 f98a 	bl	80031e0 <HAL_TIM_IC_Start>
 8000ecc:	210c      	movs	r1, #12
 8000ece:	4620      	mov	r0, r4
 8000ed0:	f002 f986 	bl	80031e0 <HAL_TIM_IC_Start>
 8000ed4:	2108      	movs	r1, #8
 8000ed6:	480d      	ldr	r0, [pc, #52]	; (8000f0c <timerSettings+0x5c>)
 8000ed8:	f002 f982 	bl	80031e0 <HAL_TIM_IC_Start>
 8000edc:	2100      	movs	r1, #0
 8000ede:	480c      	ldr	r0, [pc, #48]	; (8000f10 <timerSettings+0x60>)
 8000ee0:	f002 f806 	bl	8002ef0 <HAL_TIM_OC_Start>
 8000ee4:	4b0b      	ldr	r3, [pc, #44]	; (8000f14 <timerSettings+0x64>)
 8000ee6:	69da      	ldr	r2, [r3, #28]
 8000ee8:	f022 02f0 	bic.w	r2, r2, #240	; 0xf0
 8000eec:	61da      	str	r2, [r3, #28]
 8000eee:	69da      	ldr	r2, [r3, #28]
 8000ef0:	f442 4200 	orr.w	r2, r2, #32768	; 0x8000
 8000ef4:	61da      	str	r2, [r3, #28]
 8000ef6:	699a      	ldr	r2, [r3, #24]
 8000ef8:	f422 4270 	bic.w	r2, r2, #61440	; 0xf000
 8000efc:	619a      	str	r2, [r3, #24]
 8000efe:	699a      	ldr	r2, [r3, #24]
 8000f00:	f442 4200 	orr.w	r2, r2, #32768	; 0x8000
 8000f04:	619a      	str	r2, [r3, #24]
 8000f06:	bd10      	pop	{r4, pc}
 8000f08:	200020fc 	.word	0x200020fc
 8000f0c:	200020b4 	.word	0x200020b4
 8000f10:	20002144 	.word	0x20002144
 8000f14:	40000400 	.word	0x40000400

08000f18 <filterList>:
 8000f18:	e92d 4ff0 	stmdb	sp!, {r4, r5, r6, r7, r8, r9, sl, fp, lr}
 8000f1c:	4615      	mov	r5, r2
 8000f1e:	b08d      	sub	sp, #52	; 0x34
 8000f20:	005a      	lsls	r2, r3, #1
 8000f22:	af00      	add	r7, sp, #0
 8000f24:	61bb      	str	r3, [r7, #24]
 8000f26:	1dd3      	adds	r3, r2, #7
 8000f28:	f023 0307 	bic.w	r3, r3, #7
 8000f2c:	ebad 0d03 	sub.w	sp, sp, r3
 8000f30:	46e8      	mov	r8, sp
 8000f32:	2600      	movs	r6, #0
 8000f34:	46aa      	mov	sl, r5
 8000f36:	e9c7 0108 	strd	r0, r1, [r7, #32]
 8000f3a:	2100      	movs	r1, #0
 8000f3c:	4640      	mov	r0, r8
 8000f3e:	f003 fc45 	bl	80047cc <memset>
 8000f42:	f1a8 0902 	sub.w	r9, r8, #2
 8000f46:	62fd      	str	r5, [r7, #44]	; 0x2c
 8000f48:	62be      	str	r6, [r7, #40]	; 0x28
 8000f4a:	613e      	str	r6, [r7, #16]
 8000f4c:	69bb      	ldr	r3, [r7, #24]
 8000f4e:	429e      	cmp	r6, r3
 8000f50:	d118      	bne.n	8000f84 <filterList+0x6c>
 8000f52:	6abb      	ldr	r3, [r7, #40]	; 0x28
 8000f54:	eb05 06c6 	add.w	r6, r5, r6, lsl #3
 8000f58:	eb05 0ac3 	add.w	sl, r5, r3, lsl #3
 8000f5c:	f04f 0b00 	mov.w	fp, #0
 8000f60:	2400      	movs	r4, #0
 8000f62:	2500      	movs	r5, #0
 8000f64:	6afb      	ldr	r3, [r7, #44]	; 0x2c
 8000f66:	42b3      	cmp	r3, r6
 8000f68:	d157      	bne.n	800101a <filterList+0x102>
 8000f6a:	4658      	mov	r0, fp
 8000f6c:	f7ff faf6 	bl	800055c <__aeabi_i2d>
 8000f70:	4602      	mov	r2, r0
 8000f72:	460b      	mov	r3, r1
 8000f74:	4620      	mov	r0, r4
 8000f76:	4629      	mov	r1, r5
 8000f78:	f7ff fc84 	bl	8000884 <__aeabi_ddiv>
 8000f7c:	3734      	adds	r7, #52	; 0x34
 8000f7e:	46bd      	mov	sp, r7
 8000f80:	e8bd 8ff0 	ldmia.w	sp!, {r4, r5, r6, r7, r8, r9, sl, fp, pc}
 8000f84:	f839 4f02 	ldrh.w	r4, [r9, #2]!
 8000f88:	b91c      	cbnz	r4, 8000f92 <filterList+0x7a>
 8000f8a:	46ab      	mov	fp, r5
 8000f8c:	69bb      	ldr	r3, [r7, #24]
 8000f8e:	429c      	cmp	r4, r3
 8000f90:	d103      	bne.n	8000f9a <filterList+0x82>
 8000f92:	3601      	adds	r6, #1
 8000f94:	f10a 0a08 	add.w	sl, sl, #8
 8000f98:	e7d8      	b.n	8000f4c <filterList+0x34>
 8000f9a:	42a6      	cmp	r6, r4
 8000f9c:	d039      	beq.n	8001012 <filterList+0xfa>
 8000f9e:	e9da 2300 	ldrd	r2, r3, [sl]
 8000fa2:	2000      	movs	r0, #0
 8000fa4:	e9c7 2302 	strd	r2, r3, [r7, #8]
 8000fa8:	e9db 2300 	ldrd	r2, r3, [fp]
 8000fac:	493c      	ldr	r1, [pc, #240]	; (80010a0 <filterList+0x188>)
 8000fae:	e9c7 2300 	strd	r2, r3, [r7]
 8000fb2:	e9d7 2308 	ldrd	r2, r3, [r7, #32]
 8000fb6:	f7ff f983 	bl	80002c0 <__aeabi_dsub>
 8000fba:	e9d7 2300 	ldrd	r2, r3, [r7]
 8000fbe:	f7ff fb37 	bl	8000630 <__aeabi_dmul>
 8000fc2:	4602      	mov	r2, r0
 8000fc4:	460b      	mov	r3, r1
 8000fc6:	e9d7 0102 	ldrd	r0, r1, [r7, #8]
 8000fca:	f7ff fdb7 	bl	8000b3c <__aeabi_dcmpge>
 8000fce:	b300      	cbz	r0, 8001012 <filterList+0xfa>
 8000fd0:	e9d7 0108 	ldrd	r0, r1, [r7, #32]
 8000fd4:	2200      	movs	r2, #0
 8000fd6:	4b32      	ldr	r3, [pc, #200]	; (80010a0 <filterList+0x188>)
 8000fd8:	f7ff f974 	bl	80002c4 <__adddf3>
 8000fdc:	e9d7 2300 	ldrd	r2, r3, [r7]
 8000fe0:	f7ff fb26 	bl	8000630 <__aeabi_dmul>
 8000fe4:	4602      	mov	r2, r0
 8000fe6:	460b      	mov	r3, r1
 8000fe8:	e9d7 0102 	ldrd	r0, r1, [r7, #8]
 8000fec:	f7ff fd9c 	bl	8000b28 <__aeabi_dcmple>
 8000ff0:	b178      	cbz	r0, 8001012 <filterList+0xfa>
 8000ff2:	f8b9 3000 	ldrh.w	r3, [r9]
 8000ff6:	693a      	ldr	r2, [r7, #16]
 8000ff8:	3301      	adds	r3, #1
 8000ffa:	f8a9 3000 	strh.w	r3, [r9]
 8000ffe:	f838 3014 	ldrh.w	r3, [r8, r4, lsl #1]
 8001002:	3301      	adds	r3, #1
 8001004:	b29b      	uxth	r3, r3
 8001006:	429a      	cmp	r2, r3
 8001008:	f828 3014 	strh.w	r3, [r8, r4, lsl #1]
 800100c:	bf3c      	itt	cc
 800100e:	62bc      	strcc	r4, [r7, #40]	; 0x28
 8001010:	613b      	strcc	r3, [r7, #16]
 8001012:	3401      	adds	r4, #1
 8001014:	f10b 0b08 	add.w	fp, fp, #8
 8001018:	e7b8      	b.n	8000f8c <filterList+0x74>
 800101a:	6afb      	ldr	r3, [r7, #44]	; 0x2c
 800101c:	e9d7 0108 	ldrd	r0, r1, [r7, #32]
 8001020:	e8f3 8902 	ldrd	r8, r9, [r3], #8
 8001024:	62fb      	str	r3, [r7, #44]	; 0x2c
 8001026:	e9da 2300 	ldrd	r2, r3, [sl]
 800102a:	e9c7 2306 	strd	r2, r3, [r7, #24]
 800102e:	f04f 3233 	mov.w	r2, #858993459	; 0x33333333
 8001032:	4b1c      	ldr	r3, [pc, #112]	; (80010a4 <filterList+0x18c>)
 8001034:	f7ff fafc 	bl	8000630 <__aeabi_dmul>
 8001038:	4602      	mov	r2, r0
 800103a:	460b      	mov	r3, r1
 800103c:	e9c7 0104 	strd	r0, r1, [r7, #16]
 8001040:	2000      	movs	r0, #0
 8001042:	4917      	ldr	r1, [pc, #92]	; (80010a0 <filterList+0x188>)
 8001044:	f7ff f93c 	bl	80002c0 <__aeabi_dsub>
 8001048:	e9d7 2306 	ldrd	r2, r3, [r7, #24]
 800104c:	f7ff faf0 	bl	8000630 <__aeabi_dmul>
 8001050:	4602      	mov	r2, r0
 8001052:	460b      	mov	r3, r1
 8001054:	4640      	mov	r0, r8
 8001056:	4649      	mov	r1, r9
 8001058:	f7ff fd70 	bl	8000b3c <__aeabi_dcmpge>
 800105c:	2800      	cmp	r0, #0
 800105e:	d081      	beq.n	8000f64 <filterList+0x4c>
 8001060:	e9d7 0104 	ldrd	r0, r1, [r7, #16]
 8001064:	2200      	movs	r2, #0
 8001066:	4b0e      	ldr	r3, [pc, #56]	; (80010a0 <filterList+0x188>)
 8001068:	f7ff f92c 	bl	80002c4 <__adddf3>
 800106c:	e9d7 2306 	ldrd	r2, r3, [r7, #24]
 8001070:	f7ff fade 	bl	8000630 <__aeabi_dmul>
 8001074:	4602      	mov	r2, r0
 8001076:	460b      	mov	r3, r1
 8001078:	4640      	mov	r0, r8
 800107a:	4649      	mov	r1, r9
 800107c:	f7ff fd54 	bl	8000b28 <__aeabi_dcmple>
 8001080:	2800      	cmp	r0, #0
 8001082:	f43f af6f 	beq.w	8000f64 <filterList+0x4c>
 8001086:	4620      	mov	r0, r4
 8001088:	4629      	mov	r1, r5
 800108a:	4642      	mov	r2, r8
 800108c:	464b      	mov	r3, r9
 800108e:	f7ff f919 	bl	80002c4 <__adddf3>
 8001092:	f10b 0b01 	add.w	fp, fp, #1
 8001096:	4604      	mov	r4, r0
 8001098:	460d      	mov	r5, r1
 800109a:	fa1f fb8b 	uxth.w	fp, fp
 800109e:	e761      	b.n	8000f64 <filterList+0x4c>
 80010a0:	3ff00000 	.word	0x3ff00000
 80010a4:	3ff33333 	.word	0x3ff33333

080010a8 <measureLCR>:
 80010a8:	b508      	push	{r3, lr}
 80010aa:	4b07      	ldr	r3, [pc, #28]	; (80010c8 <measureLCR+0x20>)
 80010ac:	6b98      	ldr	r0, [r3, #56]	; 0x38
 80010ae:	f04f 4380 	mov.w	r3, #1073741824	; 0x40000000
 80010b2:	6bdb      	ldr	r3, [r3, #60]	; 0x3c
 80010b4:	ebc3 4303 	rsb	r3, r3, r3, lsl #16
 80010b8:	4418      	add	r0, r3
 80010ba:	f7ff fa4f 	bl	800055c <__aeabi_i2d>
 80010be:	2200      	movs	r2, #0
 80010c0:	4b02      	ldr	r3, [pc, #8]	; (80010cc <measureLCR+0x24>)
 80010c2:	f7ff fbdf 	bl	8000884 <__aeabi_ddiv>
 80010c6:	bd08      	pop	{r3, pc}
 80010c8:	40000400 	.word	0x40000400
 80010cc:	40520000 	.word	0x40520000

080010d0 <calculateLCR>:
 80010d0:	b5d0      	push	{r4, r6, r7, lr}
 80010d2:	4604      	mov	r4, r0
 80010d4:	6800      	ldr	r0, [r0, #0]
 80010d6:	f7ff fa31 	bl	800053c <__aeabi_ui2d>
 80010da:	a319      	add	r3, pc, #100	; (adr r3, 8001140 <calculateLCR+0x70>)
 80010dc:	e9d3 2300 	ldrd	r2, r3, [r3]
 80010e0:	4606      	mov	r6, r0
 80010e2:	460f      	mov	r7, r1
 80010e4:	e9d4 0106 	ldrd	r0, r1, [r4, #24]
 80010e8:	f7ff faa2 	bl	8000630 <__aeabi_dmul>
 80010ec:	a316      	add	r3, pc, #88	; (adr r3, 8001148 <calculateLCR+0x78>)
 80010ee:	e9d3 2300 	ldrd	r2, r3, [r3]
 80010f2:	f7ff fbc7 	bl	8000884 <__aeabi_ddiv>
 80010f6:	4632      	mov	r2, r6
 80010f8:	463b      	mov	r3, r7
 80010fa:	f7ff fa99 	bl	8000630 <__aeabi_dmul>
 80010fe:	f002 f967 	bl	80033d0 <tan>
 8001102:	e9d4 2302 	ldrd	r2, r3, [r4, #8]
 8001106:	f7ff fa93 	bl	8000630 <__aeabi_dmul>
 800110a:	4602      	mov	r2, r0
 800110c:	460b      	mov	r3, r1
 800110e:	f7ff f8d9 	bl	80002c4 <__adddf3>
 8001112:	a30f      	add	r3, pc, #60	; (adr r3, 8001150 <calculateLCR+0x80>)
 8001114:	e9d3 2300 	ldrd	r2, r3, [r3]
 8001118:	f7ff fa8a 	bl	8000630 <__aeabi_dmul>
 800111c:	4632      	mov	r2, r6
 800111e:	463b      	mov	r3, r7
 8001120:	f7ff fa86 	bl	8000630 <__aeabi_dmul>
 8001124:	460b      	mov	r3, r1
 8001126:	7c21      	ldrb	r1, [r4, #16]
 8001128:	4602      	mov	r2, r0
 800112a:	b109      	cbz	r1, 8001130 <calculateLCR+0x60>
 800112c:	f103 4300 	add.w	r3, r3, #2147483648	; 0x80000000
 8001130:	2000      	movs	r0, #0
 8001132:	4909      	ldr	r1, [pc, #36]	; (8001158 <calculateLCR+0x88>)
 8001134:	f7ff fba6 	bl	8000884 <__aeabi_ddiv>
 8001138:	bdd0      	pop	{r4, r6, r7, pc}
 800113a:	bf00      	nop
 800113c:	f3af 8000 	nop.w
 8001140:	54442d18 	.word	0x54442d18
 8001144:	401921fb 	.word	0x401921fb
 8001148:	00000000 	.word	0x00000000
 800114c:	412e8480 	.word	0x412e8480
 8001150:	54442d18 	.word	0x54442d18
 8001154:	400921fb 	.word	0x400921fb
 8001158:	3ff00000 	.word	0x3ff00000

0800115c <currentLeading>:
 800115c:	b570      	push	{r4, r5, r6, lr}
 800115e:	2300      	movs	r3, #0
 8001160:	f24c 354f 	movw	r5, #49999	; 0xc34f
 8001164:	4826      	ldr	r0, [pc, #152]	; (8001200 <currentLeading+0xa4>)
 8001166:	4c27      	ldr	r4, [pc, #156]	; (8001204 <currentLeading+0xa8>)
 8001168:	6a41      	ldr	r1, [r0, #36]	; 0x24
 800116a:	b289      	uxth	r1, r1
 800116c:	461a      	mov	r2, r3
 800116e:	6a43      	ldr	r3, [r0, #36]	; 0x24
 8001170:	1a5b      	subs	r3, r3, r1
 8001172:	b29b      	uxth	r3, r3
 8001174:	42ab      	cmp	r3, r5
 8001176:	d80b      	bhi.n	8001190 <currentLeading+0x34>
 8001178:	68a3      	ldr	r3, [r4, #8]
 800117a:	f013 0310 	ands.w	r3, r3, #16
 800117e:	d0f5      	beq.n	800116c <currentLeading+0x10>
 8001180:	68a6      	ldr	r6, [r4, #8]
 8001182:	2300      	movs	r3, #0
 8001184:	06b6      	lsls	r6, r6, #26
 8001186:	d5f1      	bpl.n	800116c <currentLeading+0x10>
 8001188:	3201      	adds	r2, #1
 800118a:	b293      	uxth	r3, r2
 800118c:	2b14      	cmp	r3, #20
 800118e:	d1ed      	bne.n	800116c <currentLeading+0x10>
 8001190:	2300      	movs	r3, #0
 8001192:	f24c 354f 	movw	r5, #49999	; 0xc34f
 8001196:	481a      	ldr	r0, [pc, #104]	; (8001200 <currentLeading+0xa4>)
 8001198:	4c1a      	ldr	r4, [pc, #104]	; (8001204 <currentLeading+0xa8>)
 800119a:	6a41      	ldr	r1, [r0, #36]	; 0x24
 800119c:	b289      	uxth	r1, r1
 800119e:	461a      	mov	r2, r3
 80011a0:	6a43      	ldr	r3, [r0, #36]	; 0x24
 80011a2:	1a5b      	subs	r3, r3, r1
 80011a4:	b29b      	uxth	r3, r3
 80011a6:	42ab      	cmp	r3, r5
 80011a8:	d80a      	bhi.n	80011c0 <currentLeading+0x64>
 80011aa:	68a3      	ldr	r3, [r4, #8]
 80011ac:	f013 0310 	ands.w	r3, r3, #16
 80011b0:	d11a      	bne.n	80011e8 <currentLeading+0x8c>
 80011b2:	68a6      	ldr	r6, [r4, #8]
 80011b4:	06b6      	lsls	r6, r6, #26
 80011b6:	d4f2      	bmi.n	800119e <currentLeading+0x42>
 80011b8:	1c53      	adds	r3, r2, #1
 80011ba:	b29b      	uxth	r3, r3
 80011bc:	2b14      	cmp	r3, #20
 80011be:	d1ee      	bne.n	800119e <currentLeading+0x42>
 80011c0:	4b0f      	ldr	r3, [pc, #60]	; (8001200 <currentLeading+0xa4>)
 80011c2:	6a59      	ldr	r1, [r3, #36]	; 0x24
 80011c4:	b289      	uxth	r1, r1
 80011c6:	6a5a      	ldr	r2, [r3, #36]	; 0x24
 80011c8:	1a52      	subs	r2, r2, r1
 80011ca:	2a01      	cmp	r2, #1
 80011cc:	d9fb      	bls.n	80011c6 <currentLeading+0x6a>
 80011ce:	f24c 344f 	movw	r4, #49999	; 0xc34f
 80011d2:	6a5a      	ldr	r2, [r3, #36]	; 0x24
 80011d4:	4d0a      	ldr	r5, [pc, #40]	; (8001200 <currentLeading+0xa4>)
 80011d6:	490b      	ldr	r1, [pc, #44]	; (8001204 <currentLeading+0xa8>)
 80011d8:	b292      	uxth	r2, r2
 80011da:	6a6b      	ldr	r3, [r5, #36]	; 0x24
 80011dc:	1a9b      	subs	r3, r3, r2
 80011de:	b29b      	uxth	r3, r3
 80011e0:	42a3      	cmp	r3, r4
 80011e2:	d903      	bls.n	80011ec <currentLeading+0x90>
 80011e4:	2063      	movs	r0, #99	; 0x63
 80011e6:	e008      	b.n	80011fa <currentLeading+0x9e>
 80011e8:	2200      	movs	r2, #0
 80011ea:	e7d9      	b.n	80011a0 <currentLeading+0x44>
 80011ec:	6888      	ldr	r0, [r1, #8]
 80011ee:	f010 0010 	ands.w	r0, r0, #16
 80011f2:	d103      	bne.n	80011fc <currentLeading+0xa0>
 80011f4:	688b      	ldr	r3, [r1, #8]
 80011f6:	069b      	lsls	r3, r3, #26
 80011f8:	d5ef      	bpl.n	80011da <currentLeading+0x7e>
 80011fa:	bd70      	pop	{r4, r5, r6, pc}
 80011fc:	2001      	movs	r0, #1
 80011fe:	e7fc      	b.n	80011fa <currentLeading+0x9e>
 8001200:	40000800 	.word	0x40000800
 8001204:	40010c00 	.word	0x40010c00

08001208 <createSineWave>:
 8001208:	e92d 4ff1 	stmdb	sp!, {r0, r4, r5, r6, r7, r8, r9, sl, fp, lr}
 800120c:	4606      	mov	r6, r0
 800120e:	6803      	ldr	r3, [r0, #0]
 8001210:	4c39      	ldr	r4, [pc, #228]	; (80012f8 <createSineWave+0xf0>)
 8001212:	460d      	mov	r5, r1
 8001214:	4839      	ldr	r0, [pc, #228]	; (80012fc <createSineWave+0xf4>)
 8001216:	2100      	movs	r1, #0
 8001218:	fbb4 f4f3 	udiv	r4, r4, r3
 800121c:	f001 ffde 	bl	80031dc <HAL_TIM_PWM_Stop_DMA>
 8001220:	7c32      	ldrb	r2, [r6, #16]
 8001222:	2102      	movs	r1, #2
 8001224:	4836      	ldr	r0, [pc, #216]	; (8001300 <createSineWave+0xf8>)
 8001226:	f000 ff6f 	bl	8002108 <HAL_GPIO_WritePin>
 800122a:	2328      	movs	r3, #40	; 0x28
 800122c:	f641 72fa 	movw	r2, #8186	; 0x1ffa
 8001230:	fbb4 f1f3 	udiv	r1, r4, r3
 8001234:	4291      	cmp	r1, r2
 8001236:	b29f      	uxth	r7, r3
 8001238:	d903      	bls.n	8001242 <createSineWave+0x3a>
 800123a:	3301      	adds	r3, #1
 800123c:	2bfe      	cmp	r3, #254	; 0xfe
 800123e:	d1f7      	bne.n	8001230 <createSineWave+0x28>
 8001240:	461f      	mov	r7, r3
 8001242:	4b30      	ldr	r3, [pc, #192]	; (8001304 <createSineWave+0xfc>)
 8001244:	fbb4 f4f7 	udiv	r4, r4, r7
 8001248:	62df      	str	r7, [r3, #44]	; 0x2c
 800124a:	2301      	movs	r3, #1
 800124c:	3d05      	subs	r5, #5
 800124e:	fbb4 f1f3 	udiv	r1, r4, r3
 8001252:	42a9      	cmp	r1, r5
 8001254:	b2da      	uxtb	r2, r3
 8001256:	d303      	bcc.n	8001260 <createSineWave+0x58>
 8001258:	3301      	adds	r3, #1
 800125a:	2bfe      	cmp	r3, #254	; 0xfe
 800125c:	d1f7      	bne.n	800124e <createSineWave+0x46>
 800125e:	461a      	mov	r2, r3
 8001260:	fbb4 f4f2 	udiv	r4, r4, r2
 8001264:	4b27      	ldr	r3, [pc, #156]	; (8001304 <createSineWave+0xfc>)
 8001266:	1e51      	subs	r1, r2, #1
 8001268:	6299      	str	r1, [r3, #40]	; 0x28
 800126a:	4620      	mov	r0, r4
 800126c:	f7ff f966 	bl	800053c <__aeabi_ui2d>
 8001270:	4602      	mov	r2, r0
 8001272:	460b      	mov	r3, r1
 8001274:	a11e      	add	r1, pc, #120	; (adr r1, 80012f0 <createSineWave+0xe8>)
 8001276:	e9d1 0100 	ldrd	r0, r1, [r1]
 800127a:	f7ff fb03 	bl	8000884 <__aeabi_ddiv>
 800127e:	f7ff fcb9 	bl	8000bf4 <__aeabi_d2f>
 8001282:	2500      	movs	r5, #0
 8001284:	4682      	mov	sl, r0
 8001286:	f105 0b01 	add.w	fp, r5, #1
 800128a:	b2ad      	uxth	r5, r5
 800128c:	42a5      	cmp	r5, r4
 800128e:	d308      	bcc.n	80012a2 <createSineWave+0x9a>
 8001290:	2100      	movs	r1, #0
 8001292:	4a1d      	ldr	r2, [pc, #116]	; (8001308 <createSineWave+0x100>)
 8001294:	4819      	ldr	r0, [pc, #100]	; (80012fc <createSineWave+0xf4>)
 8001296:	b2a3      	uxth	r3, r4
 8001298:	b001      	add	sp, #4
 800129a:	e8bd 4ff0 	ldmia.w	sp!, {r4, r5, r6, r7, r8, r9, sl, fp, lr}
 800129e:	f001 bf37 	b.w	8003110 <HAL_TIM_PWM_Start_DMA>
 80012a2:	4628      	mov	r0, r5
 80012a4:	f7ff fdb0 	bl	8000e08 <__aeabi_i2f>
 80012a8:	4651      	mov	r1, sl
 80012aa:	f7fe ff51 	bl	8000150 <__aeabi_fmul>
 80012ae:	f7ff f967 	bl	8000580 <__aeabi_f2d>
 80012b2:	f002 f847 	bl	8003344 <sin>
 80012b6:	e9d6 2302 	ldrd	r2, r3, [r6, #8]
 80012ba:	f7ff f9b9 	bl	8000630 <__aeabi_dmul>
 80012be:	2200      	movs	r2, #0
 80012c0:	4b12      	ldr	r3, [pc, #72]	; (800130c <createSineWave+0x104>)
 80012c2:	f7fe ffff 	bl	80002c4 <__adddf3>
 80012c6:	4680      	mov	r8, r0
 80012c8:	4638      	mov	r0, r7
 80012ca:	4689      	mov	r9, r1
 80012cc:	f7ff f946 	bl	800055c <__aeabi_i2d>
 80012d0:	4602      	mov	r2, r0
 80012d2:	460b      	mov	r3, r1
 80012d4:	4640      	mov	r0, r8
 80012d6:	4649      	mov	r1, r9
 80012d8:	f7ff f9aa 	bl	8000630 <__aeabi_dmul>
 80012dc:	4b0c      	ldr	r3, [pc, #48]	; (8001310 <createSineWave+0x108>)
 80012de:	2200      	movs	r2, #0
 80012e0:	f7ff f9a6 	bl	8000630 <__aeabi_dmul>
 80012e4:	f7ff fc66 	bl	8000bb4 <__aeabi_d2uiz>
 80012e8:	4b07      	ldr	r3, [pc, #28]	; (8001308 <createSineWave+0x100>)
 80012ea:	5558      	strb	r0, [r3, r5]
 80012ec:	465d      	mov	r5, fp
 80012ee:	e7ca      	b.n	8001286 <createSineWave+0x7e>
 80012f0:	2e48e8a7 	.word	0x2e48e8a7
 80012f4:	401921ff 	.word	0x401921ff
 80012f8:	044aa200 	.word	0x044aa200
 80012fc:	2000206c 	.word	0x2000206c
 8001300:	40010c00 	.word	0x40010c00
 8001304:	40012c00 	.word	0x40012c00
 8001308:	20000028 	.word	0x20000028
 800130c:	3ff00000 	.word	0x3ff00000
 8001310:	3fe00000 	.word	0x3fe00000

08001314 <MX_DMA_Init>:
 8001314:	4b0a      	ldr	r3, [pc, #40]	; (8001340 <MX_DMA_Init+0x2c>)
 8001316:	b507      	push	{r0, r1, r2, lr}
 8001318:	695a      	ldr	r2, [r3, #20]
 800131a:	200c      	movs	r0, #12
 800131c:	f042 0201 	orr.w	r2, r2, #1
 8001320:	615a      	str	r2, [r3, #20]
 8001322:	2200      	movs	r2, #0
 8001324:	695b      	ldr	r3, [r3, #20]
 8001326:	4611      	mov	r1, r2
 8001328:	f003 0301 	and.w	r3, r3, #1
 800132c:	9301      	str	r3, [sp, #4]
 800132e:	9b01      	ldr	r3, [sp, #4]
 8001330:	f000 fc72 	bl	8001c18 <HAL_NVIC_SetPriority>
 8001334:	200c      	movs	r0, #12
 8001336:	b003      	add	sp, #12
 8001338:	f85d eb04 	ldr.w	lr, [sp], #4
 800133c:	f000 bc9e 	b.w	8001c7c <HAL_NVIC_EnableIRQ>
 8001340:	40021000 	.word	0x40021000

08001344 <MX_GPIO_Init>:
 8001344:	e92d 47f0 	stmdb	sp!, {r4, r5, r6, r7, r8, r9, sl, lr}
 8001348:	2710      	movs	r7, #16
 800134a:	b088      	sub	sp, #32
 800134c:	463a      	mov	r2, r7
 800134e:	2100      	movs	r1, #0
 8001350:	eb0d 0007 	add.w	r0, sp, r7
 8001354:	f003 fa3a 	bl	80047cc <memset>
 8001358:	4b2f      	ldr	r3, [pc, #188]	; (8001418 <MX_GPIO_Init+0xd4>)
 800135a:	f8df a0c0 	ldr.w	sl, [pc, #192]	; 800141c <MX_GPIO_Init+0xd8>
 800135e:	699a      	ldr	r2, [r3, #24]
 8001360:	f8df 90bc 	ldr.w	r9, [pc, #188]	; 8001420 <MX_GPIO_Init+0xdc>
 8001364:	433a      	orrs	r2, r7
 8001366:	619a      	str	r2, [r3, #24]
 8001368:	699a      	ldr	r2, [r3, #24]
 800136a:	4650      	mov	r0, sl
 800136c:	403a      	ands	r2, r7
 800136e:	9200      	str	r2, [sp, #0]
 8001370:	9a00      	ldr	r2, [sp, #0]
 8001372:	699a      	ldr	r2, [r3, #24]
 8001374:	f8df 80ac 	ldr.w	r8, [pc, #172]	; 8001424 <MX_GPIO_Init+0xe0>
 8001378:	f042 0220 	orr.w	r2, r2, #32
 800137c:	619a      	str	r2, [r3, #24]
 800137e:	699a      	ldr	r2, [r3, #24]
 8001380:	f44f 5100 	mov.w	r1, #8192	; 0x2000
 8001384:	f002 0220 	and.w	r2, r2, #32
 8001388:	9201      	str	r2, [sp, #4]
 800138a:	9a01      	ldr	r2, [sp, #4]
 800138c:	699a      	ldr	r2, [r3, #24]
 800138e:	2601      	movs	r6, #1
 8001390:	f042 0204 	orr.w	r2, r2, #4
 8001394:	619a      	str	r2, [r3, #24]
 8001396:	699a      	ldr	r2, [r3, #24]
 8001398:	2500      	movs	r5, #0
 800139a:	f002 0204 	and.w	r2, r2, #4
 800139e:	9202      	str	r2, [sp, #8]
 80013a0:	9a02      	ldr	r2, [sp, #8]
 80013a2:	699a      	ldr	r2, [r3, #24]
 80013a4:	2402      	movs	r4, #2
 80013a6:	f042 0208 	orr.w	r2, r2, #8
 80013aa:	619a      	str	r2, [r3, #24]
 80013ac:	699b      	ldr	r3, [r3, #24]
 80013ae:	2200      	movs	r2, #0
 80013b0:	f003 0308 	and.w	r3, r3, #8
 80013b4:	9303      	str	r3, [sp, #12]
 80013b6:	9b03      	ldr	r3, [sp, #12]
 80013b8:	f000 fea6 	bl	8002108 <HAL_GPIO_WritePin>
 80013bc:	4639      	mov	r1, r7
 80013be:	4648      	mov	r0, r9
 80013c0:	2200      	movs	r2, #0
 80013c2:	f000 fea1 	bl	8002108 <HAL_GPIO_WritePin>
 80013c6:	2200      	movs	r2, #0
 80013c8:	4640      	mov	r0, r8
 80013ca:	f640 4102 	movw	r1, #3074	; 0xc02
 80013ce:	f000 fe9b 	bl	8002108 <HAL_GPIO_WritePin>
 80013d2:	f44f 5300 	mov.w	r3, #8192	; 0x2000
 80013d6:	4650      	mov	r0, sl
 80013d8:	eb0d 0107 	add.w	r1, sp, r7
 80013dc:	e9cd 3604 	strd	r3, r6, [sp, #16]
 80013e0:	e9cd 5406 	strd	r5, r4, [sp, #24]
 80013e4:	f000 fdb6 	bl	8001f54 <HAL_GPIO_Init>
 80013e8:	4648      	mov	r0, r9
 80013ea:	eb0d 0107 	add.w	r1, sp, r7
 80013ee:	e9cd 7604 	strd	r7, r6, [sp, #16]
 80013f2:	e9cd 5406 	strd	r5, r4, [sp, #24]
 80013f6:	f000 fdad 	bl	8001f54 <HAL_GPIO_Init>
 80013fa:	f640 4302 	movw	r3, #3074	; 0xc02
 80013fe:	4640      	mov	r0, r8
 8001400:	eb0d 0107 	add.w	r1, sp, r7
 8001404:	e9cd 3604 	strd	r3, r6, [sp, #16]
 8001408:	e9cd 5406 	strd	r5, r4, [sp, #24]
 800140c:	f000 fda2 	bl	8001f54 <HAL_GPIO_Init>
 8001410:	b008      	add	sp, #32
 8001412:	e8bd 87f0 	ldmia.w	sp!, {r4, r5, r6, r7, r8, r9, sl, pc}
 8001416:	bf00      	nop
 8001418:	40021000 	.word	0x40021000
 800141c:	40011000 	.word	0x40011000
 8001420:	40010800 	.word	0x40010800
 8001424:	40010c00 	.word	0x40010c00

08001428 <SystemClock_Config>:
 8001428:	b510      	push	{r4, lr}
 800142a:	b090      	sub	sp, #64	; 0x40
 800142c:	2214      	movs	r2, #20
 800142e:	2100      	movs	r1, #0
 8001430:	a808      	add	r0, sp, #32
 8001432:	f003 f9cb 	bl	80047cc <memset>
 8001436:	2214      	movs	r2, #20
 8001438:	2100      	movs	r1, #0
 800143a:	a801      	add	r0, sp, #4
 800143c:	f003 f9c6 	bl	80047cc <memset>
 8001440:	2402      	movs	r4, #2
 8001442:	f44f 3380 	mov.w	r3, #65536	; 0x10000
 8001446:	2201      	movs	r2, #1
 8001448:	e9cd 430d 	strd	r4, r3, [sp, #52]	; 0x34
 800144c:	e9cd 2306 	strd	r2, r3, [sp, #24]
 8001450:	f44f 13e0 	mov.w	r3, #1835008	; 0x1c0000
 8001454:	a806      	add	r0, sp, #24
 8001456:	920a      	str	r2, [sp, #40]	; 0x28
 8001458:	930f      	str	r3, [sp, #60]	; 0x3c
 800145a:	f000 fe5b 	bl	8002114 <HAL_RCC_OscConfig>
 800145e:	b108      	cbz	r0, 8001464 <SystemClock_Config+0x3c>
 8001460:	b672      	cpsid	i
 8001462:	e7fe      	b.n	8001462 <SystemClock_Config+0x3a>
 8001464:	230f      	movs	r3, #15
 8001466:	e9cd 3401 	strd	r3, r4, [sp, #4]
 800146a:	f44f 6380 	mov.w	r3, #1024	; 0x400
 800146e:	9003      	str	r0, [sp, #12]
 8001470:	e9cd 3004 	strd	r3, r0, [sp, #16]
 8001474:	4621      	mov	r1, r4
 8001476:	a801      	add	r0, sp, #4
 8001478:	f001 f80e 	bl	8002498 <HAL_RCC_ClockConfig>
 800147c:	b108      	cbz	r0, 8001482 <SystemClock_Config+0x5a>
 800147e:	b672      	cpsid	i
 8001480:	e7fe      	b.n	8001480 <SystemClock_Config+0x58>
 8001482:	b010      	add	sp, #64	; 0x40
 8001484:	bd10      	pop	{r4, pc}
	...

08001488 <main>:
 8001488:	2332      	movs	r3, #50	; 0x32
 800148a:	a151      	add	r1, pc, #324	; (adr r1, 80015d0 <main+0x148>)
 800148c:	e9d1 0100 	ldrd	r0, r1, [r1]
 8001490:	e92d 4ff0 	stmdb	sp!, {r4, r5, r6, r7, r8, r9, sl, fp, lr}
 8001494:	f20f 1940 	addw	r9, pc, #320	; 0x140
 8001498:	e9d9 8900 	ldrd	r8, r9, [r9]
 800149c:	b0b7      	sub	sp, #220	; 0xdc
 800149e:	9302      	str	r3, [sp, #8]
 80014a0:	a34f      	add	r3, pc, #316	; (adr r3, 80015e0 <main+0x158>)
 80014a2:	e9d3 2300 	ldrd	r2, r3, [r3]
 80014a6:	e9cd 2304 	strd	r2, r3, [sp, #16]
 80014aa:	2301      	movs	r3, #1
 80014ac:	f44f 727a 	mov.w	r2, #1000	; 0x3e8
 80014b0:	f88d 3018 	strb.w	r3, [sp, #24]
 80014b4:	f88d 3030 	strb.w	r3, [sp, #48]	; 0x30
 80014b8:	f242 7310 	movw	r3, #10000	; 0x2710
 80014bc:	9208      	str	r2, [sp, #32]
 80014be:	930e      	str	r3, [sp, #56]	; 0x38
 80014c0:	a349      	add	r3, pc, #292	; (adr r3, 80015e8 <main+0x160>)
 80014c2:	e9d3 2300 	ldrd	r2, r3, [r3]
 80014c6:	e9cd 2310 	strd	r2, r3, [sp, #64]	; 0x40
 80014ca:	2300      	movs	r3, #0
 80014cc:	f24c 3250 	movw	r2, #50000	; 0xc350
 80014d0:	f88d 3048 	strb.w	r3, [sp, #72]	; 0x48
 80014d4:	9214      	str	r2, [sp, #80]	; 0x50
 80014d6:	f88d 3060 	strb.w	r3, [sp, #96]	; 0x60
 80014da:	e9cd 010a 	strd	r0, r1, [sp, #40]	; 0x28
 80014de:	a144      	add	r1, pc, #272	; (adr r1, 80015f0 <main+0x168>)
 80014e0:	e9d1 0100 	ldrd	r0, r1, [r1]
 80014e4:	2600      	movs	r6, #0
 80014e6:	e9cd 0116 	strd	r0, r1, [sp, #88]	; 0x58
 80014ea:	f000 fb4d 	bl	8001b88 <HAL_Init>
 80014ee:	f7ff ff9b 	bl	8001428 <SystemClock_Config>
 80014f2:	f7ff ff27 	bl	8001344 <MX_GPIO_Init>
 80014f6:	f7ff ff0d 	bl	8001314 <MX_DMA_Init>
 80014fa:	f000 fa91 	bl	8001a20 <MX_TIM1_Init>
 80014fe:	f000 f8ab 	bl	8001658 <MX_TIM2_Init>
 8001502:	f000 f917 	bl	8001734 <MX_TIM3_Init>
 8001506:	f000 f983 	bl	8001810 <MX_TIM4_Init>
 800150a:	f7ff fcd1 	bl	8000eb0 <timerSettings>
 800150e:	f8df a0e8 	ldr.w	sl, [pc, #232]	; 80015f8 <main+0x170>
 8001512:	4f3a      	ldr	r7, [pc, #232]	; (80015fc <main+0x174>)
 8001514:	2400      	movs	r4, #0
 8001516:	b2e3      	uxtb	r3, r4
 8001518:	2c00      	cmp	r4, #0
 800151a:	d13b      	bne.n	8001594 <main+0x10c>
 800151c:	f44f 5100 	mov.w	r1, #8192	; 0x2000
 8001520:	a802      	add	r0, sp, #8
 8001522:	f7ff fe71 	bl	8001208 <createSineWave>
 8001526:	9b02      	ldr	r3, [sp, #8]
 8001528:	931a      	str	r3, [sp, #104]	; 0x68
 800152a:	2200      	movs	r2, #0
 800152c:	f44f 6180 	mov.w	r1, #1024	; 0x400
 8001530:	4650      	mov	r0, sl
 8001532:	f000 fde9 	bl	8002108 <HAL_GPIO_WritePin>
 8001536:	2201      	movs	r2, #1
 8001538:	f44f 6100 	mov.w	r1, #2048	; 0x800
 800153c:	4650      	mov	r0, sl
 800153e:	f000 fde3 	bl	8002108 <HAL_GPIO_WritePin>
 8001542:	f44f 70fa 	mov.w	r0, #500	; 0x1f4
 8001546:	e9cd 671c 	strd	r6, r7, [sp, #112]	; 0x70
 800154a:	f000 fb41 	bl	8001bd0 <HAL_Delay>
 800154e:	f7ff fe05 	bl	800115c <currentLeading>
 8001552:	ab22      	add	r3, sp, #136	; 0x88
 8001554:	250a      	movs	r5, #10
 8001556:	469b      	mov	fp, r3
 8001558:	f88d 0078 	strb.w	r0, [sp, #120]	; 0x78
 800155c:	2032      	movs	r0, #50	; 0x32
 800155e:	9301      	str	r3, [sp, #4]
 8001560:	f000 fb36 	bl	8001bd0 <HAL_Delay>
 8001564:	f7ff fda0 	bl	80010a8 <measureLCR>
 8001568:	3d01      	subs	r5, #1
 800156a:	9b01      	ldr	r3, [sp, #4]
 800156c:	b2ad      	uxth	r5, r5
 800156e:	e8e3 0102 	strd	r0, r1, [r3], #8
 8001572:	2d00      	cmp	r5, #0
 8001574:	d1f2      	bne.n	800155c <main+0xd4>
 8001576:	230a      	movs	r3, #10
 8001578:	465a      	mov	r2, fp
 800157a:	4640      	mov	r0, r8
 800157c:	4649      	mov	r1, r9
 800157e:	f7ff fccb 	bl	8000f18 <filterList>
 8001582:	3401      	adds	r4, #1
 8001584:	e9cd 0120 	strd	r0, r1, [sp, #128]	; 0x80
 8001588:	a81a      	add	r0, sp, #104	; 0x68
 800158a:	f7ff fda1 	bl	80010d0 <calculateLCR>
 800158e:	2c04      	cmp	r4, #4
 8001590:	d1c1      	bne.n	8001516 <main+0x8e>
 8001592:	e7bf      	b.n	8001514 <main+0x8c>
 8001594:	2b01      	cmp	r3, #1
 8001596:	d106      	bne.n	80015a6 <main+0x11e>
 8001598:	f44f 5100 	mov.w	r1, #8192	; 0x2000
 800159c:	a808      	add	r0, sp, #32
 800159e:	f7ff fe33 	bl	8001208 <createSineWave>
 80015a2:	9b08      	ldr	r3, [sp, #32]
 80015a4:	e7c0      	b.n	8001528 <main+0xa0>
 80015a6:	2b02      	cmp	r3, #2
 80015a8:	d106      	bne.n	80015b8 <main+0x130>
 80015aa:	f44f 5100 	mov.w	r1, #8192	; 0x2000
 80015ae:	a80e      	add	r0, sp, #56	; 0x38
 80015b0:	f7ff fe2a 	bl	8001208 <createSineWave>
 80015b4:	9b0e      	ldr	r3, [sp, #56]	; 0x38
 80015b6:	e7b7      	b.n	8001528 <main+0xa0>
 80015b8:	2c03      	cmp	r4, #3
 80015ba:	d1b6      	bne.n	800152a <main+0xa2>
 80015bc:	f44f 5100 	mov.w	r1, #8192	; 0x2000
 80015c0:	a814      	add	r0, sp, #80	; 0x50
 80015c2:	f7ff fe21 	bl	8001208 <createSineWave>
 80015c6:	9b14      	ldr	r3, [sp, #80]	; 0x50
 80015c8:	e7ae      	b.n	8001528 <main+0xa0>
 80015ca:	bf00      	nop
 80015cc:	f3af 8000 	nop.w
 80015d0:	4df17a81 	.word	0x4df17a81
 80015d4:	3fcec4ec 	.word	0x3fcec4ec
 80015d8:	9999999a 	.word	0x9999999a
 80015dc:	3fb99999 	.word	0x3fb99999
 80015e0:	494bd6f7 	.word	0x494bd6f7
 80015e4:	3fd12492 	.word	0x3fd12492
 80015e8:	19059bb2 	.word	0x19059bb2
 80015ec:	3fd47582 	.word	0x3fd47582
 80015f0:	a6e8eb19 	.word	0xa6e8eb19
 80015f4:	3fd5bd37 	.word	0x3fd5bd37
 80015f8:	40010c00 	.word	0x40010c00
 80015fc:	408f4000 	.word	0x408f4000

08001600 <Error_Handler>:
 8001600:	b672      	cpsid	i
 8001602:	e7fe      	b.n	8001602 <Error_Handler+0x2>

08001604 <HAL_MspInit>:
 8001604:	4b0a      	ldr	r3, [pc, #40]	; (8001630 <HAL_MspInit+0x2c>)
 8001606:	b082      	sub	sp, #8
 8001608:	699a      	ldr	r2, [r3, #24]
 800160a:	f042 0201 	orr.w	r2, r2, #1
 800160e:	619a      	str	r2, [r3, #24]
 8001610:	699a      	ldr	r2, [r3, #24]
 8001612:	f002 0201 	and.w	r2, r2, #1
 8001616:	9200      	str	r2, [sp, #0]
 8001618:	9a00      	ldr	r2, [sp, #0]
 800161a:	69da      	ldr	r2, [r3, #28]
 800161c:	f042 5280 	orr.w	r2, r2, #268435456	; 0x10000000
 8001620:	61da      	str	r2, [r3, #28]
 8001622:	69db      	ldr	r3, [r3, #28]
 8001624:	f003 5380 	and.w	r3, r3, #268435456	; 0x10000000
 8001628:	9301      	str	r3, [sp, #4]
 800162a:	9b01      	ldr	r3, [sp, #4]
 800162c:	b002      	add	sp, #8
 800162e:	4770      	bx	lr
 8001630:	40021000 	.word	0x40021000

08001634 <NMI_Handler>:
 8001634:	e7fe      	b.n	8001634 <NMI_Handler>

08001636 <HardFault_Handler>:
 8001636:	e7fe      	b.n	8001636 <HardFault_Handler>

08001638 <MemManage_Handler>:
 8001638:	e7fe      	b.n	8001638 <MemManage_Handler>

0800163a <BusFault_Handler>:
 800163a:	e7fe      	b.n	800163a <BusFault_Handler>

0800163c <UsageFault_Handler>:
 800163c:	e7fe      	b.n	800163c <UsageFault_Handler>

0800163e <SVC_Handler>:
 800163e:	4770      	bx	lr

08001640 <DebugMon_Handler>:
 8001640:	4770      	bx	lr

08001642 <PendSV_Handler>:
 8001642:	4770      	bx	lr

08001644 <SysTick_Handler>:
 8001644:	f000 bab2 	b.w	8001bac <HAL_IncTick>

08001648 <DMA1_Channel2_IRQHandler>:
 8001648:	4801      	ldr	r0, [pc, #4]	; (8001650 <DMA1_Channel2_IRQHandler+0x8>)
 800164a:	f000 bbef 	b.w	8001e2c <HAL_DMA_IRQHandler>
 800164e:	bf00      	nop
 8001650:	20002028 	.word	0x20002028

08001654 <SystemInit>:
 8001654:	4770      	bx	lr
	...

08001658 <MX_TIM2_Init>:
 8001658:	b510      	push	{r4, lr}
 800165a:	2400      	movs	r4, #0
 800165c:	b090      	sub	sp, #64	; 0x40
 800165e:	2210      	movs	r2, #16
 8001660:	2100      	movs	r1, #0
 8001662:	a803      	add	r0, sp, #12
 8001664:	f003 f8b2 	bl	80047cc <memset>
 8001668:	2214      	movs	r2, #20
 800166a:	2100      	movs	r1, #0
 800166c:	a80b      	add	r0, sp, #44	; 0x2c
 800166e:	f003 f8ad 	bl	80047cc <memset>
 8001672:	4621      	mov	r1, r4
 8001674:	2210      	movs	r2, #16
 8001676:	a807      	add	r0, sp, #28
 8001678:	e9cd 4401 	strd	r4, r4, [sp, #4]
 800167c:	f003 f8a6 	bl	80047cc <memset>
 8001680:	f64f 73fe 	movw	r3, #65534	; 0xfffe
 8001684:	f04f 4180 	mov.w	r1, #1073741824	; 0x40000000
 8001688:	4829      	ldr	r0, [pc, #164]	; (8001730 <MX_TIM2_Init+0xd8>)
 800168a:	e9c0 1300 	strd	r1, r3, [r0]
 800168e:	f64f 73ff 	movw	r3, #65535	; 0xffff
 8001692:	6084      	str	r4, [r0, #8]
 8001694:	e9c0 3403 	strd	r3, r4, [r0, #12]
 8001698:	6184      	str	r4, [r0, #24]
 800169a:	f001 f8d1 	bl	8002840 <HAL_TIM_Base_Init>
 800169e:	b108      	cbz	r0, 80016a4 <MX_TIM2_Init+0x4c>
 80016a0:	f7ff ffae 	bl	8001600 <Error_Handler>
 80016a4:	f44f 5380 	mov.w	r3, #4096	; 0x1000
 80016a8:	4821      	ldr	r0, [pc, #132]	; (8001730 <MX_TIM2_Init+0xd8>)
 80016aa:	a903      	add	r1, sp, #12
 80016ac:	9303      	str	r3, [sp, #12]
 80016ae:	f001 faed 	bl	8002c8c <HAL_TIM_ConfigClockSource>
 80016b2:	b108      	cbz	r0, 80016b8 <MX_TIM2_Init+0x60>
 80016b4:	f7ff ffa4 	bl	8001600 <Error_Handler>
 80016b8:	481d      	ldr	r0, [pc, #116]	; (8001730 <MX_TIM2_Init+0xd8>)
 80016ba:	f001 f945 	bl	8002948 <HAL_TIM_IC_Init>
 80016be:	b108      	cbz	r0, 80016c4 <MX_TIM2_Init+0x6c>
 80016c0:	f7ff ff9e 	bl	8001600 <Error_Handler>
 80016c4:	2340      	movs	r3, #64	; 0x40
 80016c6:	2204      	movs	r2, #4
 80016c8:	e9cd 230b 	strd	r2, r3, [sp, #44]	; 0x2c
 80016cc:	2308      	movs	r3, #8
 80016ce:	4818      	ldr	r0, [pc, #96]	; (8001730 <MX_TIM2_Init+0xd8>)
 80016d0:	a90b      	add	r1, sp, #44	; 0x2c
 80016d2:	930f      	str	r3, [sp, #60]	; 0x3c
 80016d4:	f001 fbd6 	bl	8002e84 <HAL_TIM_SlaveConfigSynchro>
 80016d8:	b108      	cbz	r0, 80016de <MX_TIM2_Init+0x86>
 80016da:	f7ff ff91 	bl	8001600 <Error_Handler>
 80016de:	2400      	movs	r4, #0
 80016e0:	4813      	ldr	r0, [pc, #76]	; (8001730 <MX_TIM2_Init+0xd8>)
 80016e2:	a901      	add	r1, sp, #4
 80016e4:	e9cd 4401 	strd	r4, r4, [sp, #4]
 80016e8:	f001 fdd8 	bl	800329c <HAL_TIMEx_MasterConfigSynchronization>
 80016ec:	b108      	cbz	r0, 80016f2 <MX_TIM2_Init+0x9a>
 80016ee:	f7ff ff87 	bl	8001600 <Error_Handler>
 80016f2:	2301      	movs	r3, #1
 80016f4:	e9cd 3408 	strd	r3, r4, [sp, #32]
 80016f8:	2308      	movs	r3, #8
 80016fa:	2204      	movs	r2, #4
 80016fc:	480c      	ldr	r0, [pc, #48]	; (8001730 <MX_TIM2_Init+0xd8>)
 80016fe:	a907      	add	r1, sp, #28
 8001700:	9407      	str	r4, [sp, #28]
 8001702:	930a      	str	r3, [sp, #40]	; 0x28
 8001704:	f001 fa26 	bl	8002b54 <HAL_TIM_IC_ConfigChannel>
 8001708:	b108      	cbz	r0, 800170e <MX_TIM2_Init+0xb6>
 800170a:	f7ff ff79 	bl	8001600 <Error_Handler>
 800170e:	2208      	movs	r2, #8
 8001710:	4807      	ldr	r0, [pc, #28]	; (8001730 <MX_TIM2_Init+0xd8>)
 8001712:	a907      	add	r1, sp, #28
 8001714:	f001 fa1e 	bl	8002b54 <HAL_TIM_IC_ConfigChannel>
 8001718:	b108      	cbz	r0, 800171e <MX_TIM2_Init+0xc6>
 800171a:	f7ff ff71 	bl	8001600 <Error_Handler>
 800171e:	2180      	movs	r1, #128	; 0x80
 8001720:	4803      	ldr	r0, [pc, #12]	; (8001730 <MX_TIM2_Init+0xd8>)
 8001722:	f000 ffcc 	bl	80026be <HAL_TIM_ConfigTI1Input>
 8001726:	b108      	cbz	r0, 800172c <MX_TIM2_Init+0xd4>
 8001728:	f7ff ff6a 	bl	8001600 <Error_Handler>
 800172c:	b010      	add	sp, #64	; 0x40
 800172e:	bd10      	pop	{r4, pc}
 8001730:	200020b4 	.word	0x200020b4

08001734 <MX_TIM3_Init>:
 8001734:	b530      	push	{r4, r5, lr}
 8001736:	2400      	movs	r4, #0
 8001738:	b091      	sub	sp, #68	; 0x44
 800173a:	2210      	movs	r2, #16
 800173c:	2100      	movs	r1, #0
 800173e:	a803      	add	r0, sp, #12
 8001740:	f003 f844 	bl	80047cc <memset>
 8001744:	2214      	movs	r2, #20
 8001746:	2100      	movs	r1, #0
 8001748:	a80b      	add	r0, sp, #44	; 0x2c
 800174a:	f003 f83f 	bl	80047cc <memset>
 800174e:	2210      	movs	r2, #16
 8001750:	4621      	mov	r1, r4
 8001752:	a807      	add	r0, sp, #28
 8001754:	e9cd 4401 	strd	r4, r4, [sp, #4]
 8001758:	f003 f838 	bl	80047cc <memset>
 800175c:	482a      	ldr	r0, [pc, #168]	; (8001808 <MX_TIM3_Init+0xd4>)
 800175e:	4b2b      	ldr	r3, [pc, #172]	; (800180c <MX_TIM3_Init+0xd8>)
 8001760:	6084      	str	r4, [r0, #8]
 8001762:	e9c0 3400 	strd	r3, r4, [r0]
 8001766:	f64f 73ff 	movw	r3, #65535	; 0xffff
 800176a:	6184      	str	r4, [r0, #24]
 800176c:	e9c0 3403 	strd	r3, r4, [r0, #12]
 8001770:	f001 f866 	bl	8002840 <HAL_TIM_Base_Init>
 8001774:	b108      	cbz	r0, 800177a <MX_TIM3_Init+0x46>
 8001776:	f7ff ff43 	bl	8001600 <Error_Handler>
 800177a:	f44f 5380 	mov.w	r3, #4096	; 0x1000
 800177e:	4822      	ldr	r0, [pc, #136]	; (8001808 <MX_TIM3_Init+0xd4>)
 8001780:	a903      	add	r1, sp, #12
 8001782:	9303      	str	r3, [sp, #12]
 8001784:	f001 fa82 	bl	8002c8c <HAL_TIM_ConfigClockSource>
 8001788:	b108      	cbz	r0, 800178e <MX_TIM3_Init+0x5a>
 800178a:	f7ff ff39 	bl	8001600 <Error_Handler>
 800178e:	481e      	ldr	r0, [pc, #120]	; (8001808 <MX_TIM3_Init+0xd4>)
 8001790:	f001 f8da 	bl	8002948 <HAL_TIM_IC_Init>
 8001794:	b108      	cbz	r0, 800179a <MX_TIM3_Init+0x66>
 8001796:	f7ff ff33 	bl	8001600 <Error_Handler>
 800179a:	2400      	movs	r4, #0
 800179c:	2304      	movs	r3, #4
 800179e:	2540      	movs	r5, #64	; 0x40
 80017a0:	4819      	ldr	r0, [pc, #100]	; (8001808 <MX_TIM3_Init+0xd4>)
 80017a2:	a90b      	add	r1, sp, #44	; 0x2c
 80017a4:	e9cd 350b 	strd	r3, r5, [sp, #44]	; 0x2c
 80017a8:	940d      	str	r4, [sp, #52]	; 0x34
 80017aa:	940f      	str	r4, [sp, #60]	; 0x3c
 80017ac:	f001 fb6a 	bl	8002e84 <HAL_TIM_SlaveConfigSynchro>
 80017b0:	b108      	cbz	r0, 80017b6 <MX_TIM3_Init+0x82>
 80017b2:	f7ff ff25 	bl	8001600 <Error_Handler>
 80017b6:	4814      	ldr	r0, [pc, #80]	; (8001808 <MX_TIM3_Init+0xd4>)
 80017b8:	a901      	add	r1, sp, #4
 80017ba:	e9cd 5401 	strd	r5, r4, [sp, #4]
 80017be:	f001 fd6d 	bl	800329c <HAL_TIMEx_MasterConfigSynchronization>
 80017c2:	b108      	cbz	r0, 80017c8 <MX_TIM3_Init+0x94>
 80017c4:	f7ff ff1c 	bl	8001600 <Error_Handler>
 80017c8:	2200      	movs	r2, #0
 80017ca:	2301      	movs	r3, #1
 80017cc:	e9cd 2307 	strd	r2, r3, [sp, #28]
 80017d0:	2308      	movs	r3, #8
 80017d2:	480d      	ldr	r0, [pc, #52]	; (8001808 <MX_TIM3_Init+0xd4>)
 80017d4:	a907      	add	r1, sp, #28
 80017d6:	9209      	str	r2, [sp, #36]	; 0x24
 80017d8:	930a      	str	r3, [sp, #40]	; 0x28
 80017da:	f001 f9bb 	bl	8002b54 <HAL_TIM_IC_ConfigChannel>
 80017de:	b108      	cbz	r0, 80017e4 <MX_TIM3_Init+0xb0>
 80017e0:	f7ff ff0e 	bl	8001600 <Error_Handler>
 80017e4:	2204      	movs	r2, #4
 80017e6:	4808      	ldr	r0, [pc, #32]	; (8001808 <MX_TIM3_Init+0xd4>)
 80017e8:	a907      	add	r1, sp, #28
 80017ea:	f001 f9b3 	bl	8002b54 <HAL_TIM_IC_ConfigChannel>
 80017ee:	b108      	cbz	r0, 80017f4 <MX_TIM3_Init+0xc0>
 80017f0:	f7ff ff06 	bl	8001600 <Error_Handler>
 80017f4:	2180      	movs	r1, #128	; 0x80
 80017f6:	4804      	ldr	r0, [pc, #16]	; (8001808 <MX_TIM3_Init+0xd4>)
 80017f8:	f000 ff61 	bl	80026be <HAL_TIM_ConfigTI1Input>
 80017fc:	b108      	cbz	r0, 8001802 <MX_TIM3_Init+0xce>
 80017fe:	f7ff feff 	bl	8001600 <Error_Handler>
 8001802:	b011      	add	sp, #68	; 0x44
 8001804:	bd30      	pop	{r4, r5, pc}
 8001806:	bf00      	nop
 8001808:	200020fc 	.word	0x200020fc
 800180c:	40000400 	.word	0x40000400

08001810 <MX_TIM4_Init>:
 8001810:	b510      	push	{r4, lr}
 8001812:	b08e      	sub	sp, #56	; 0x38
 8001814:	2210      	movs	r2, #16
 8001816:	2100      	movs	r1, #0
 8001818:	a803      	add	r0, sp, #12
 800181a:	f002 ffd7 	bl	80047cc <memset>
 800181e:	2400      	movs	r4, #0
 8001820:	221c      	movs	r2, #28
 8001822:	4621      	mov	r1, r4
 8001824:	eb0d 0002 	add.w	r0, sp, r2
 8001828:	e9cd 4401 	strd	r4, r4, [sp, #4]
 800182c:	f002 ffce 	bl	80047cc <memset>
 8001830:	2347      	movs	r3, #71	; 0x47
 8001832:	481b      	ldr	r0, [pc, #108]	; (80018a0 <MX_TIM4_Init+0x90>)
 8001834:	4a1b      	ldr	r2, [pc, #108]	; (80018a4 <MX_TIM4_Init+0x94>)
 8001836:	6084      	str	r4, [r0, #8]
 8001838:	e9c0 2300 	strd	r2, r3, [r0]
 800183c:	f64f 73ff 	movw	r3, #65535	; 0xffff
 8001840:	6184      	str	r4, [r0, #24]
 8001842:	e9c0 3403 	strd	r3, r4, [r0, #12]
 8001846:	f000 fffb 	bl	8002840 <HAL_TIM_Base_Init>
 800184a:	b108      	cbz	r0, 8001850 <MX_TIM4_Init+0x40>
 800184c:	f7ff fed8 	bl	8001600 <Error_Handler>
 8001850:	f44f 5380 	mov.w	r3, #4096	; 0x1000
 8001854:	4812      	ldr	r0, [pc, #72]	; (80018a0 <MX_TIM4_Init+0x90>)
 8001856:	a903      	add	r1, sp, #12
 8001858:	9303      	str	r3, [sp, #12]
 800185a:	f001 fa17 	bl	8002c8c <HAL_TIM_ConfigClockSource>
 800185e:	b108      	cbz	r0, 8001864 <MX_TIM4_Init+0x54>
 8001860:	f7ff fece 	bl	8001600 <Error_Handler>
 8001864:	480e      	ldr	r0, [pc, #56]	; (80018a0 <MX_TIM4_Init+0x90>)
 8001866:	f001 f817 	bl	8002898 <HAL_TIM_OC_Init>
 800186a:	b108      	cbz	r0, 8001870 <MX_TIM4_Init+0x60>
 800186c:	f7ff fec8 	bl	8001600 <Error_Handler>
 8001870:	2400      	movs	r4, #0
 8001872:	480b      	ldr	r0, [pc, #44]	; (80018a0 <MX_TIM4_Init+0x90>)
 8001874:	a901      	add	r1, sp, #4
 8001876:	e9cd 4401 	strd	r4, r4, [sp, #4]
 800187a:	f001 fd0f 	bl	800329c <HAL_TIMEx_MasterConfigSynchronization>
 800187e:	b108      	cbz	r0, 8001884 <MX_TIM4_Init+0x74>
 8001880:	f7ff febe 	bl	8001600 <Error_Handler>
 8001884:	2200      	movs	r2, #0
 8001886:	4806      	ldr	r0, [pc, #24]	; (80018a0 <MX_TIM4_Init+0x90>)
 8001888:	a907      	add	r1, sp, #28
 800188a:	e9cd 4407 	strd	r4, r4, [sp, #28]
 800188e:	9409      	str	r4, [sp, #36]	; 0x24
 8001890:	940b      	str	r4, [sp, #44]	; 0x2c
 8001892:	f001 f8b1 	bl	80029f8 <HAL_TIM_OC_ConfigChannel>
 8001896:	b108      	cbz	r0, 800189c <MX_TIM4_Init+0x8c>
 8001898:	f7ff feb2 	bl	8001600 <Error_Handler>
 800189c:	b00e      	add	sp, #56	; 0x38
 800189e:	bd10      	pop	{r4, pc}
 80018a0:	20002144 	.word	0x20002144
 80018a4:	40000800 	.word	0x40000800

080018a8 <HAL_TIM_Base_MspInit>:
 80018a8:	b570      	push	{r4, r5, r6, lr}
 80018aa:	2610      	movs	r6, #16
 80018ac:	4605      	mov	r5, r0
 80018ae:	b08a      	sub	sp, #40	; 0x28
 80018b0:	4632      	mov	r2, r6
 80018b2:	2100      	movs	r1, #0
 80018b4:	a806      	add	r0, sp, #24
 80018b6:	f002 ff89 	bl	80047cc <memset>
 80018ba:	682b      	ldr	r3, [r5, #0]
 80018bc:	4a3b      	ldr	r2, [pc, #236]	; (80019ac <HAL_TIM_Base_MspInit+0x104>)
 80018be:	4293      	cmp	r3, r2
 80018c0:	d122      	bne.n	8001908 <HAL_TIM_Base_MspInit+0x60>
 80018c2:	4b3b      	ldr	r3, [pc, #236]	; (80019b0 <HAL_TIM_Base_MspInit+0x108>)
 80018c4:	4c3b      	ldr	r4, [pc, #236]	; (80019b4 <HAL_TIM_Base_MspInit+0x10c>)
 80018c6:	6999      	ldr	r1, [r3, #24]
 80018c8:	2280      	movs	r2, #128	; 0x80
 80018ca:	f441 6100 	orr.w	r1, r1, #2048	; 0x800
 80018ce:	6199      	str	r1, [r3, #24]
 80018d0:	699b      	ldr	r3, [r3, #24]
 80018d2:	4620      	mov	r0, r4
 80018d4:	f403 6300 	and.w	r3, r3, #2048	; 0x800
 80018d8:	9300      	str	r3, [sp, #0]
 80018da:	9b00      	ldr	r3, [sp, #0]
 80018dc:	4b36      	ldr	r3, [pc, #216]	; (80019b8 <HAL_TIM_Base_MspInit+0x110>)
 80018de:	e9c4 3600 	strd	r3, r6, [r4]
 80018e2:	2300      	movs	r3, #0
 80018e4:	e9c4 3202 	strd	r3, r2, [r4, #8]
 80018e8:	f44f 7280 	mov.w	r2, #256	; 0x100
 80018ec:	e9c4 2304 	strd	r2, r3, [r4, #16]
 80018f0:	2220      	movs	r2, #32
 80018f2:	e9c4 2306 	strd	r2, r3, [r4, #24]
 80018f6:	f000 f9e3 	bl	8001cc0 <HAL_DMA_Init>
 80018fa:	b108      	cbz	r0, 8001900 <HAL_TIM_Base_MspInit+0x58>
 80018fc:	f7ff fe80 	bl	8001600 <Error_Handler>
 8001900:	626c      	str	r4, [r5, #36]	; 0x24
 8001902:	6265      	str	r5, [r4, #36]	; 0x24
 8001904:	b00a      	add	sp, #40	; 0x28
 8001906:	bd70      	pop	{r4, r5, r6, pc}
 8001908:	f1b3 4f80 	cmp.w	r3, #1073741824	; 0x40000000
 800190c:	d11a      	bne.n	8001944 <HAL_TIM_Base_MspInit+0x9c>
 800190e:	f503 3304 	add.w	r3, r3, #135168	; 0x21000
 8001912:	69da      	ldr	r2, [r3, #28]
 8001914:	4829      	ldr	r0, [pc, #164]	; (80019bc <HAL_TIM_Base_MspInit+0x114>)
 8001916:	f042 0201 	orr.w	r2, r2, #1
 800191a:	61da      	str	r2, [r3, #28]
 800191c:	69da      	ldr	r2, [r3, #28]
 800191e:	a906      	add	r1, sp, #24
 8001920:	f002 0201 	and.w	r2, r2, #1
 8001924:	9201      	str	r2, [sp, #4]
 8001926:	9a01      	ldr	r2, [sp, #4]
 8001928:	699a      	ldr	r2, [r3, #24]
 800192a:	f042 0204 	orr.w	r2, r2, #4
 800192e:	619a      	str	r2, [r3, #24]
 8001930:	699b      	ldr	r3, [r3, #24]
 8001932:	f003 0304 	and.w	r3, r3, #4
 8001936:	9302      	str	r3, [sp, #8]
 8001938:	9b02      	ldr	r3, [sp, #8]
 800193a:	2307      	movs	r3, #7
 800193c:	9306      	str	r3, [sp, #24]
 800193e:	f000 fb09 	bl	8001f54 <HAL_GPIO_Init>
 8001942:	e7df      	b.n	8001904 <HAL_TIM_Base_MspInit+0x5c>
 8001944:	4a1e      	ldr	r2, [pc, #120]	; (80019c0 <HAL_TIM_Base_MspInit+0x118>)
 8001946:	4293      	cmp	r3, r2
 8001948:	d122      	bne.n	8001990 <HAL_TIM_Base_MspInit+0xe8>
 800194a:	4b19      	ldr	r3, [pc, #100]	; (80019b0 <HAL_TIM_Base_MspInit+0x108>)
 800194c:	481d      	ldr	r0, [pc, #116]	; (80019c4 <HAL_TIM_Base_MspInit+0x11c>)
 800194e:	69da      	ldr	r2, [r3, #28]
 8001950:	a906      	add	r1, sp, #24
 8001952:	f042 0202 	orr.w	r2, r2, #2
 8001956:	61da      	str	r2, [r3, #28]
 8001958:	69da      	ldr	r2, [r3, #28]
 800195a:	f002 0202 	and.w	r2, r2, #2
 800195e:	9203      	str	r2, [sp, #12]
 8001960:	9a03      	ldr	r2, [sp, #12]
 8001962:	699a      	ldr	r2, [r3, #24]
 8001964:	f042 0208 	orr.w	r2, r2, #8
 8001968:	619a      	str	r2, [r3, #24]
 800196a:	699b      	ldr	r3, [r3, #24]
 800196c:	f003 0308 	and.w	r3, r3, #8
 8001970:	9304      	str	r3, [sp, #16]
 8001972:	9b04      	ldr	r3, [sp, #16]
 8001974:	2330      	movs	r3, #48	; 0x30
 8001976:	9306      	str	r3, [sp, #24]
 8001978:	f000 faec 	bl	8001f54 <HAL_GPIO_Init>
 800197c:	4a12      	ldr	r2, [pc, #72]	; (80019c8 <HAL_TIM_Base_MspInit+0x120>)
 800197e:	6853      	ldr	r3, [r2, #4]
 8001980:	f423 6340 	bic.w	r3, r3, #3072	; 0xc00
 8001984:	f043 63e0 	orr.w	r3, r3, #117440512	; 0x7000000
 8001988:	f443 6300 	orr.w	r3, r3, #2048	; 0x800
 800198c:	6053      	str	r3, [r2, #4]
 800198e:	e7b9      	b.n	8001904 <HAL_TIM_Base_MspInit+0x5c>
 8001990:	4a0e      	ldr	r2, [pc, #56]	; (80019cc <HAL_TIM_Base_MspInit+0x124>)
 8001992:	4293      	cmp	r3, r2
 8001994:	d1b6      	bne.n	8001904 <HAL_TIM_Base_MspInit+0x5c>
 8001996:	4b06      	ldr	r3, [pc, #24]	; (80019b0 <HAL_TIM_Base_MspInit+0x108>)
 8001998:	69da      	ldr	r2, [r3, #28]
 800199a:	f042 0204 	orr.w	r2, r2, #4
 800199e:	61da      	str	r2, [r3, #28]
 80019a0:	69db      	ldr	r3, [r3, #28]
 80019a2:	f003 0304 	and.w	r3, r3, #4
 80019a6:	9305      	str	r3, [sp, #20]
 80019a8:	9b05      	ldr	r3, [sp, #20]
 80019aa:	e7ab      	b.n	8001904 <HAL_TIM_Base_MspInit+0x5c>
 80019ac:	40012c00 	.word	0x40012c00
 80019b0:	40021000 	.word	0x40021000
 80019b4:	20002028 	.word	0x20002028
 80019b8:	4002001c 	.word	0x4002001c
 80019bc:	40010800 	.word	0x40010800
 80019c0:	40000400 	.word	0x40000400
 80019c4:	40010c00 	.word	0x40010c00
 80019c8:	40010000 	.word	0x40010000
 80019cc:	40000800 	.word	0x40000800

080019d0 <HAL_TIM_MspPostInit>:
 80019d0:	b510      	push	{r4, lr}
 80019d2:	4604      	mov	r4, r0
 80019d4:	b086      	sub	sp, #24
 80019d6:	2210      	movs	r2, #16
 80019d8:	2100      	movs	r1, #0
 80019da:	a802      	add	r0, sp, #8
 80019dc:	f002 fef6 	bl	80047cc <memset>
 80019e0:	6822      	ldr	r2, [r4, #0]
 80019e2:	4b0d      	ldr	r3, [pc, #52]	; (8001a18 <HAL_TIM_MspPostInit+0x48>)
 80019e4:	429a      	cmp	r2, r3
 80019e6:	d114      	bne.n	8001a12 <HAL_TIM_MspPostInit+0x42>
 80019e8:	f503 4364 	add.w	r3, r3, #58368	; 0xe400
 80019ec:	699a      	ldr	r2, [r3, #24]
 80019ee:	480b      	ldr	r0, [pc, #44]	; (8001a1c <HAL_TIM_MspPostInit+0x4c>)
 80019f0:	f042 0204 	orr.w	r2, r2, #4
 80019f4:	619a      	str	r2, [r3, #24]
 80019f6:	699b      	ldr	r3, [r3, #24]
 80019f8:	f44f 7280 	mov.w	r2, #256	; 0x100
 80019fc:	f003 0304 	and.w	r3, r3, #4
 8001a00:	9301      	str	r3, [sp, #4]
 8001a02:	9b01      	ldr	r3, [sp, #4]
 8001a04:	2302      	movs	r3, #2
 8001a06:	a902      	add	r1, sp, #8
 8001a08:	e9cd 2302 	strd	r2, r3, [sp, #8]
 8001a0c:	9305      	str	r3, [sp, #20]
 8001a0e:	f000 faa1 	bl	8001f54 <HAL_GPIO_Init>
 8001a12:	b006      	add	sp, #24
 8001a14:	bd10      	pop	{r4, pc}
 8001a16:	bf00      	nop
 8001a18:	40012c00 	.word	0x40012c00
 8001a1c:	40010800 	.word	0x40010800

08001a20 <MX_TIM1_Init>:
 8001a20:	b510      	push	{r4, lr}
 8001a22:	b096      	sub	sp, #88	; 0x58
 8001a24:	2210      	movs	r2, #16
 8001a26:	2100      	movs	r1, #0
 8001a28:	a803      	add	r0, sp, #12
 8001a2a:	2400      	movs	r4, #0
 8001a2c:	f002 fece 	bl	80047cc <memset>
 8001a30:	221c      	movs	r2, #28
 8001a32:	4621      	mov	r1, r4
 8001a34:	eb0d 0002 	add.w	r0, sp, r2
 8001a38:	e9cd 4401 	strd	r4, r4, [sp, #4]
 8001a3c:	f002 fec6 	bl	80047cc <memset>
 8001a40:	2220      	movs	r2, #32
 8001a42:	4621      	mov	r1, r4
 8001a44:	a80e      	add	r0, sp, #56	; 0x38
 8001a46:	f002 fec1 	bl	80047cc <memset>
 8001a4a:	4828      	ldr	r0, [pc, #160]	; (8001aec <MX_TIM1_Init+0xcc>)
 8001a4c:	4b28      	ldr	r3, [pc, #160]	; (8001af0 <MX_TIM1_Init+0xd0>)
 8001a4e:	e9c0 4405 	strd	r4, r4, [r0, #20]
 8001a52:	e9c0 3400 	strd	r3, r4, [r0]
 8001a56:	f64f 73ff 	movw	r3, #65535	; 0xffff
 8001a5a:	6084      	str	r4, [r0, #8]
 8001a5c:	e9c0 3403 	strd	r3, r4, [r0, #12]
 8001a60:	f000 feee 	bl	8002840 <HAL_TIM_Base_Init>
 8001a64:	b108      	cbz	r0, 8001a6a <MX_TIM1_Init+0x4a>
 8001a66:	f7ff fdcb 	bl	8001600 <Error_Handler>
 8001a6a:	f44f 5380 	mov.w	r3, #4096	; 0x1000
 8001a6e:	481f      	ldr	r0, [pc, #124]	; (8001aec <MX_TIM1_Init+0xcc>)
 8001a70:	a903      	add	r1, sp, #12
 8001a72:	9303      	str	r3, [sp, #12]
 8001a74:	f001 f90a 	bl	8002c8c <HAL_TIM_ConfigClockSource>
 8001a78:	b108      	cbz	r0, 8001a7e <MX_TIM1_Init+0x5e>
 8001a7a:	f7ff fdc1 	bl	8001600 <Error_Handler>
 8001a7e:	481b      	ldr	r0, [pc, #108]	; (8001aec <MX_TIM1_Init+0xcc>)
 8001a80:	f000 ff36 	bl	80028f0 <HAL_TIM_PWM_Init>
 8001a84:	b108      	cbz	r0, 8001a8a <MX_TIM1_Init+0x6a>
 8001a86:	f7ff fdbb 	bl	8001600 <Error_Handler>
 8001a8a:	2400      	movs	r4, #0
 8001a8c:	4817      	ldr	r0, [pc, #92]	; (8001aec <MX_TIM1_Init+0xcc>)
 8001a8e:	a901      	add	r1, sp, #4
 8001a90:	e9cd 4401 	strd	r4, r4, [sp, #4]
 8001a94:	f001 fc02 	bl	800329c <HAL_TIMEx_MasterConfigSynchronization>
 8001a98:	b108      	cbz	r0, 8001a9e <MX_TIM1_Init+0x7e>
 8001a9a:	f7ff fdb1 	bl	8001600 <Error_Handler>
 8001a9e:	2370      	movs	r3, #112	; 0x70
 8001aa0:	2200      	movs	r2, #0
 8001aa2:	4812      	ldr	r0, [pc, #72]	; (8001aec <MX_TIM1_Init+0xcc>)
 8001aa4:	a907      	add	r1, sp, #28
 8001aa6:	e9cd 3407 	strd	r3, r4, [sp, #28]
 8001aaa:	e9cd 4409 	strd	r4, r4, [sp, #36]	; 0x24
 8001aae:	e9cd 440b 	strd	r4, r4, [sp, #44]	; 0x2c
 8001ab2:	940d      	str	r4, [sp, #52]	; 0x34
 8001ab4:	f000 ffc8 	bl	8002a48 <HAL_TIM_PWM_ConfigChannel>
 8001ab8:	b108      	cbz	r0, 8001abe <MX_TIM1_Init+0x9e>
 8001aba:	f7ff fda1 	bl	8001600 <Error_Handler>
 8001abe:	2300      	movs	r3, #0
 8001ac0:	f44f 5200 	mov.w	r2, #8192	; 0x2000
 8001ac4:	4809      	ldr	r0, [pc, #36]	; (8001aec <MX_TIM1_Init+0xcc>)
 8001ac6:	a90e      	add	r1, sp, #56	; 0x38
 8001ac8:	e9cd 330e 	strd	r3, r3, [sp, #56]	; 0x38
 8001acc:	e9cd 3310 	strd	r3, r3, [sp, #64]	; 0x40
 8001ad0:	9312      	str	r3, [sp, #72]	; 0x48
 8001ad2:	9213      	str	r2, [sp, #76]	; 0x4c
 8001ad4:	9315      	str	r3, [sp, #84]	; 0x54
 8001ad6:	f001 fc0f 	bl	80032f8 <HAL_TIMEx_ConfigBreakDeadTime>
 8001ada:	b108      	cbz	r0, 8001ae0 <MX_TIM1_Init+0xc0>
 8001adc:	f7ff fd90 	bl	8001600 <Error_Handler>
 8001ae0:	4802      	ldr	r0, [pc, #8]	; (8001aec <MX_TIM1_Init+0xcc>)
 8001ae2:	f7ff ff75 	bl	80019d0 <HAL_TIM_MspPostInit>
 8001ae6:	b016      	add	sp, #88	; 0x58
 8001ae8:	bd10      	pop	{r4, pc}
 8001aea:	bf00      	nop
 8001aec:	2000206c 	.word	0x2000206c
 8001af0:	40012c00 	.word	0x40012c00

08001af4 <Reset_Handler>:
 8001af4:	f7ff fdae 	bl	8001654 <SystemInit>
 8001af8:	480b      	ldr	r0, [pc, #44]	; (8001b28 <LoopFillZerobss+0xe>)
 8001afa:	490c      	ldr	r1, [pc, #48]	; (8001b2c <LoopFillZerobss+0x12>)
 8001afc:	4a0c      	ldr	r2, [pc, #48]	; (8001b30 <LoopFillZerobss+0x16>)
 8001afe:	2300      	movs	r3, #0
 8001b00:	e002      	b.n	8001b08 <LoopCopyDataInit>

08001b02 <CopyDataInit>:
 8001b02:	58d4      	ldr	r4, [r2, r3]
 8001b04:	50c4      	str	r4, [r0, r3]
 8001b06:	3304      	adds	r3, #4

08001b08 <LoopCopyDataInit>:
 8001b08:	18c4      	adds	r4, r0, r3
 8001b0a:	428c      	cmp	r4, r1
 8001b0c:	d3f9      	bcc.n	8001b02 <CopyDataInit>
 8001b0e:	4a09      	ldr	r2, [pc, #36]	; (8001b34 <LoopFillZerobss+0x1a>)
 8001b10:	4c09      	ldr	r4, [pc, #36]	; (8001b38 <LoopFillZerobss+0x1e>)
 8001b12:	2300      	movs	r3, #0
 8001b14:	e001      	b.n	8001b1a <LoopFillZerobss>

08001b16 <FillZerobss>:
 8001b16:	6013      	str	r3, [r2, #0]
 8001b18:	3204      	adds	r2, #4

08001b1a <LoopFillZerobss>:
 8001b1a:	42a2      	cmp	r2, r4
 8001b1c:	d3fb      	bcc.n	8001b16 <FillZerobss>
 8001b1e:	f002 fe31 	bl	8004784 <__libc_init_array>
 8001b22:	f7ff fcb1 	bl	8001488 <main>
 8001b26:	4770      	bx	lr
 8001b28:	20000000 	.word	0x20000000
 8001b2c:	2000000c 	.word	0x2000000c
 8001b30:	08004a00 	.word	0x08004a00
 8001b34:	2000000c 	.word	0x2000000c
 8001b38:	20002190 	.word	0x20002190

08001b3c <ADC1_2_IRQHandler>:
 8001b3c:	e7fe      	b.n	8001b3c <ADC1_2_IRQHandler>
	...

08001b40 <HAL_InitTick>:
 8001b40:	b538      	push	{r3, r4, r5, lr}
 8001b42:	4b0e      	ldr	r3, [pc, #56]	; (8001b7c <HAL_InitTick+0x3c>)
 8001b44:	4605      	mov	r5, r0
 8001b46:	7818      	ldrb	r0, [r3, #0]
 8001b48:	f44f 737a 	mov.w	r3, #1000	; 0x3e8
 8001b4c:	fbb3 f3f0 	udiv	r3, r3, r0
 8001b50:	4a0b      	ldr	r2, [pc, #44]	; (8001b80 <HAL_InitTick+0x40>)
 8001b52:	6810      	ldr	r0, [r2, #0]
 8001b54:	fbb0 f0f3 	udiv	r0, r0, r3
 8001b58:	f000 f89e 	bl	8001c98 <HAL_SYSTICK_Config>
 8001b5c:	4604      	mov	r4, r0
 8001b5e:	b958      	cbnz	r0, 8001b78 <HAL_InitTick+0x38>
 8001b60:	2d0f      	cmp	r5, #15
 8001b62:	d809      	bhi.n	8001b78 <HAL_InitTick+0x38>
 8001b64:	4602      	mov	r2, r0
 8001b66:	4629      	mov	r1, r5
 8001b68:	f04f 30ff 	mov.w	r0, #4294967295
 8001b6c:	f000 f854 	bl	8001c18 <HAL_NVIC_SetPriority>
 8001b70:	4620      	mov	r0, r4
 8001b72:	4b04      	ldr	r3, [pc, #16]	; (8001b84 <HAL_InitTick+0x44>)
 8001b74:	601d      	str	r5, [r3, #0]
 8001b76:	bd38      	pop	{r3, r4, r5, pc}
 8001b78:	2001      	movs	r0, #1
 8001b7a:	e7fc      	b.n	8001b76 <HAL_InitTick+0x36>
 8001b7c:	20000004 	.word	0x20000004
 8001b80:	20000000 	.word	0x20000000
 8001b84:	20000008 	.word	0x20000008

08001b88 <HAL_Init>:
 8001b88:	4a07      	ldr	r2, [pc, #28]	; (8001ba8 <HAL_Init+0x20>)
 8001b8a:	b508      	push	{r3, lr}
 8001b8c:	6813      	ldr	r3, [r2, #0]
 8001b8e:	2003      	movs	r0, #3
 8001b90:	f043 0310 	orr.w	r3, r3, #16
 8001b94:	6013      	str	r3, [r2, #0]
 8001b96:	f000 f82d 	bl	8001bf4 <HAL_NVIC_SetPriorityGrouping>
 8001b9a:	200f      	movs	r0, #15
 8001b9c:	f7ff ffd0 	bl	8001b40 <HAL_InitTick>
 8001ba0:	f7ff fd30 	bl	8001604 <HAL_MspInit>
 8001ba4:	2000      	movs	r0, #0
 8001ba6:	bd08      	pop	{r3, pc}
 8001ba8:	40022000 	.word	0x40022000

08001bac <HAL_IncTick>:
 8001bac:	4a03      	ldr	r2, [pc, #12]	; (8001bbc <HAL_IncTick+0x10>)
 8001bae:	4b04      	ldr	r3, [pc, #16]	; (8001bc0 <HAL_IncTick+0x14>)
 8001bb0:	6811      	ldr	r1, [r2, #0]
 8001bb2:	781b      	ldrb	r3, [r3, #0]
 8001bb4:	440b      	add	r3, r1
 8001bb6:	6013      	str	r3, [r2, #0]
 8001bb8:	4770      	bx	lr
 8001bba:	bf00      	nop
 8001bbc:	2000218c 	.word	0x2000218c
 8001bc0:	20000004 	.word	0x20000004

08001bc4 <HAL_GetTick>:
 8001bc4:	4b01      	ldr	r3, [pc, #4]	; (8001bcc <HAL_GetTick+0x8>)
 8001bc6:	6818      	ldr	r0, [r3, #0]
 8001bc8:	4770      	bx	lr
 8001bca:	bf00      	nop
 8001bcc:	2000218c 	.word	0x2000218c

08001bd0 <HAL_Delay>:
 8001bd0:	b538      	push	{r3, r4, r5, lr}
 8001bd2:	4604      	mov	r4, r0
 8001bd4:	f7ff fff6 	bl	8001bc4 <HAL_GetTick>
 8001bd8:	4605      	mov	r5, r0
 8001bda:	1c63      	adds	r3, r4, #1
 8001bdc:	bf1e      	ittt	ne
 8001bde:	4b04      	ldrne	r3, [pc, #16]	; (8001bf0 <HAL_Delay+0x20>)
 8001be0:	781b      	ldrbne	r3, [r3, #0]
 8001be2:	18e4      	addne	r4, r4, r3
 8001be4:	f7ff ffee 	bl	8001bc4 <HAL_GetTick>
 8001be8:	1b43      	subs	r3, r0, r5
 8001bea:	42a3      	cmp	r3, r4
 8001bec:	d3fa      	bcc.n	8001be4 <HAL_Delay+0x14>
 8001bee:	bd38      	pop	{r3, r4, r5, pc}
 8001bf0:	20000004 	.word	0x20000004

08001bf4 <HAL_NVIC_SetPriorityGrouping>:
 8001bf4:	4907      	ldr	r1, [pc, #28]	; (8001c14 <HAL_NVIC_SetPriorityGrouping+0x20>)
 8001bf6:	0203      	lsls	r3, r0, #8
 8001bf8:	68ca      	ldr	r2, [r1, #12]
 8001bfa:	f403 63e0 	and.w	r3, r3, #1792	; 0x700
 8001bfe:	f422 62e0 	bic.w	r2, r2, #1792	; 0x700
 8001c02:	0412      	lsls	r2, r2, #16
 8001c04:	0c12      	lsrs	r2, r2, #16
 8001c06:	4313      	orrs	r3, r2
 8001c08:	f043 63bf 	orr.w	r3, r3, #100139008	; 0x5f80000
 8001c0c:	f443 3300 	orr.w	r3, r3, #131072	; 0x20000
 8001c10:	60cb      	str	r3, [r1, #12]
 8001c12:	4770      	bx	lr
 8001c14:	e000ed00 	.word	0xe000ed00

08001c18 <HAL_NVIC_SetPriority>:
 8001c18:	4b16      	ldr	r3, [pc, #88]	; (8001c74 <HAL_NVIC_SetPriority+0x5c>)
 8001c1a:	b530      	push	{r4, r5, lr}
 8001c1c:	68dc      	ldr	r4, [r3, #12]
 8001c1e:	f3c4 2402 	ubfx	r4, r4, #8, #3
 8001c22:	f1c4 0307 	rsb	r3, r4, #7
 8001c26:	1d25      	adds	r5, r4, #4
 8001c28:	2b04      	cmp	r3, #4
 8001c2a:	bf28      	it	cs
 8001c2c:	2304      	movcs	r3, #4
 8001c2e:	2d06      	cmp	r5, #6
 8001c30:	f04f 35ff 	mov.w	r5, #4294967295
 8001c34:	bf98      	it	ls
 8001c36:	2400      	movls	r4, #0
 8001c38:	fa05 f303 	lsl.w	r3, r5, r3
 8001c3c:	bf88      	it	hi
 8001c3e:	3c03      	subhi	r4, #3
 8001c40:	ea21 0303 	bic.w	r3, r1, r3
 8001c44:	40a3      	lsls	r3, r4
 8001c46:	fa05 f404 	lsl.w	r4, r5, r4
 8001c4a:	ea22 0204 	bic.w	r2, r2, r4
 8001c4e:	2800      	cmp	r0, #0
 8001c50:	ea43 0302 	orr.w	r3, r3, r2
 8001c54:	bfac      	ite	ge
 8001c56:	f100 4060 	addge.w	r0, r0, #3758096384	; 0xe0000000
 8001c5a:	4a07      	ldrlt	r2, [pc, #28]	; (8001c78 <HAL_NVIC_SetPriority+0x60>)
 8001c5c:	ea4f 1303 	mov.w	r3, r3, lsl #4
 8001c60:	b2db      	uxtb	r3, r3
 8001c62:	bfab      	itete	ge
 8001c64:	f500 4061 	addge.w	r0, r0, #57600	; 0xe100
 8001c68:	f000 000f 	andlt.w	r0, r0, #15
 8001c6c:	f880 3300 	strbge.w	r3, [r0, #768]	; 0x300
 8001c70:	5413      	strblt	r3, [r2, r0]
 8001c72:	bd30      	pop	{r4, r5, pc}
 8001c74:	e000ed00 	.word	0xe000ed00
 8001c78:	e000ed14 	.word	0xe000ed14

08001c7c <HAL_NVIC_EnableIRQ>:
 8001c7c:	2800      	cmp	r0, #0
 8001c7e:	db08      	blt.n	8001c92 <HAL_NVIC_EnableIRQ+0x16>
 8001c80:	2301      	movs	r3, #1
 8001c82:	0942      	lsrs	r2, r0, #5
 8001c84:	f000 001f 	and.w	r0, r0, #31
 8001c88:	fa03 f000 	lsl.w	r0, r3, r0
 8001c8c:	4b01      	ldr	r3, [pc, #4]	; (8001c94 <HAL_NVIC_EnableIRQ+0x18>)
 8001c8e:	f843 0022 	str.w	r0, [r3, r2, lsl #2]
 8001c92:	4770      	bx	lr
 8001c94:	e000e100 	.word	0xe000e100

08001c98 <HAL_SYSTICK_Config>:
 8001c98:	3801      	subs	r0, #1
 8001c9a:	f1b0 7f80 	cmp.w	r0, #16777216	; 0x1000000
 8001c9e:	d20b      	bcs.n	8001cb8 <HAL_SYSTICK_Config+0x20>
 8001ca0:	f04f 23e0 	mov.w	r3, #3758153728	; 0xe000e000
 8001ca4:	21f0      	movs	r1, #240	; 0xf0
 8001ca6:	4a05      	ldr	r2, [pc, #20]	; (8001cbc <HAL_SYSTICK_Config+0x24>)
 8001ca8:	6158      	str	r0, [r3, #20]
 8001caa:	f882 1023 	strb.w	r1, [r2, #35]	; 0x23
 8001cae:	2000      	movs	r0, #0
 8001cb0:	2207      	movs	r2, #7
 8001cb2:	6198      	str	r0, [r3, #24]
 8001cb4:	611a      	str	r2, [r3, #16]
 8001cb6:	4770      	bx	lr
 8001cb8:	2001      	movs	r0, #1
 8001cba:	4770      	bx	lr
 8001cbc:	e000ed00 	.word	0xe000ed00

08001cc0 <HAL_DMA_Init>:
 8001cc0:	b510      	push	{r4, lr}
 8001cc2:	b348      	cbz	r0, 8001d18 <HAL_DMA_Init+0x58>
 8001cc4:	2214      	movs	r2, #20
 8001cc6:	6801      	ldr	r1, [r0, #0]
 8001cc8:	4b14      	ldr	r3, [pc, #80]	; (8001d1c <HAL_DMA_Init+0x5c>)
 8001cca:	440b      	add	r3, r1
 8001ccc:	fbb3 f3f2 	udiv	r3, r3, r2
 8001cd0:	009b      	lsls	r3, r3, #2
 8001cd2:	6403      	str	r3, [r0, #64]	; 0x40
 8001cd4:	4b12      	ldr	r3, [pc, #72]	; (8001d20 <HAL_DMA_Init+0x60>)
 8001cd6:	63c3      	str	r3, [r0, #60]	; 0x3c
 8001cd8:	2302      	movs	r3, #2
 8001cda:	f880 3021 	strb.w	r3, [r0, #33]	; 0x21
 8001cde:	e9d0 3401 	ldrd	r3, r4, [r0, #4]
 8001ce2:	4323      	orrs	r3, r4
 8001ce4:	68c4      	ldr	r4, [r0, #12]
 8001ce6:	680a      	ldr	r2, [r1, #0]
 8001ce8:	4323      	orrs	r3, r4
 8001cea:	6904      	ldr	r4, [r0, #16]
 8001cec:	f422 527f 	bic.w	r2, r2, #16320	; 0x3fc0
 8001cf0:	4323      	orrs	r3, r4
 8001cf2:	6944      	ldr	r4, [r0, #20]
 8001cf4:	f022 0230 	bic.w	r2, r2, #48	; 0x30
 8001cf8:	4323      	orrs	r3, r4
 8001cfa:	6984      	ldr	r4, [r0, #24]
 8001cfc:	4323      	orrs	r3, r4
 8001cfe:	69c4      	ldr	r4, [r0, #28]
 8001d00:	4323      	orrs	r3, r4
 8001d02:	4313      	orrs	r3, r2
 8001d04:	600b      	str	r3, [r1, #0]
 8001d06:	2201      	movs	r2, #1
 8001d08:	2300      	movs	r3, #0
 8001d0a:	6383      	str	r3, [r0, #56]	; 0x38
 8001d0c:	f880 3020 	strb.w	r3, [r0, #32]
 8001d10:	f880 2021 	strb.w	r2, [r0, #33]	; 0x21
 8001d14:	4618      	mov	r0, r3
 8001d16:	bd10      	pop	{r4, pc}
 8001d18:	2001      	movs	r0, #1
 8001d1a:	e7fc      	b.n	8001d16 <HAL_DMA_Init+0x56>
 8001d1c:	bffdfff8 	.word	0xbffdfff8
 8001d20:	40020000 	.word	0x40020000

08001d24 <HAL_DMA_Start_IT>:
 8001d24:	b5f0      	push	{r4, r5, r6, r7, lr}
 8001d26:	f890 4020 	ldrb.w	r4, [r0, #32]
 8001d2a:	2c01      	cmp	r4, #1
 8001d2c:	d034      	beq.n	8001d98 <HAL_DMA_Start_IT+0x74>
 8001d2e:	2401      	movs	r4, #1
 8001d30:	f880 4020 	strb.w	r4, [r0, #32]
 8001d34:	f890 4021 	ldrb.w	r4, [r0, #33]	; 0x21
 8001d38:	2600      	movs	r6, #0
 8001d3a:	2c01      	cmp	r4, #1
 8001d3c:	b2e5      	uxtb	r5, r4
 8001d3e:	f04f 0402 	mov.w	r4, #2
 8001d42:	d127      	bne.n	8001d94 <HAL_DMA_Start_IT+0x70>
 8001d44:	f880 4021 	strb.w	r4, [r0, #33]	; 0x21
 8001d48:	6804      	ldr	r4, [r0, #0]
 8001d4a:	6386      	str	r6, [r0, #56]	; 0x38
 8001d4c:	6826      	ldr	r6, [r4, #0]
 8001d4e:	f026 0601 	bic.w	r6, r6, #1
 8001d52:	6026      	str	r6, [r4, #0]
 8001d54:	e9d0 670f 	ldrd	r6, r7, [r0, #60]	; 0x3c
 8001d58:	40bd      	lsls	r5, r7
 8001d5a:	6075      	str	r5, [r6, #4]
 8001d5c:	6063      	str	r3, [r4, #4]
 8001d5e:	6843      	ldr	r3, [r0, #4]
 8001d60:	2b10      	cmp	r3, #16
 8001d62:	6ac3      	ldr	r3, [r0, #44]	; 0x2c
 8001d64:	bf0b      	itete	eq
 8001d66:	60a2      	streq	r2, [r4, #8]
 8001d68:	60a1      	strne	r1, [r4, #8]
 8001d6a:	60e1      	streq	r1, [r4, #12]
 8001d6c:	60e2      	strne	r2, [r4, #12]
 8001d6e:	b14b      	cbz	r3, 8001d84 <HAL_DMA_Start_IT+0x60>
 8001d70:	6823      	ldr	r3, [r4, #0]
 8001d72:	f043 030e 	orr.w	r3, r3, #14
 8001d76:	2000      	movs	r0, #0
 8001d78:	6023      	str	r3, [r4, #0]
 8001d7a:	6823      	ldr	r3, [r4, #0]
 8001d7c:	f043 0301 	orr.w	r3, r3, #1
 8001d80:	6023      	str	r3, [r4, #0]
 8001d82:	bdf0      	pop	{r4, r5, r6, r7, pc}
 8001d84:	6823      	ldr	r3, [r4, #0]
 8001d86:	f023 0304 	bic.w	r3, r3, #4
 8001d8a:	6023      	str	r3, [r4, #0]
 8001d8c:	6823      	ldr	r3, [r4, #0]
 8001d8e:	f043 030a 	orr.w	r3, r3, #10
 8001d92:	e7f0      	b.n	8001d76 <HAL_DMA_Start_IT+0x52>
 8001d94:	f880 6020 	strb.w	r6, [r0, #32]
 8001d98:	2002      	movs	r0, #2
 8001d9a:	e7f2      	b.n	8001d82 <HAL_DMA_Start_IT+0x5e>

08001d9c <HAL_DMA_Abort_IT>:
 8001d9c:	b510      	push	{r4, lr}
 8001d9e:	f890 3021 	ldrb.w	r3, [r0, #33]	; 0x21
 8001da2:	2b02      	cmp	r3, #2
 8001da4:	d003      	beq.n	8001dae <HAL_DMA_Abort_IT+0x12>
 8001da6:	2304      	movs	r3, #4
 8001da8:	6383      	str	r3, [r0, #56]	; 0x38
 8001daa:	2001      	movs	r0, #1
 8001dac:	bd10      	pop	{r4, pc}
 8001dae:	6803      	ldr	r3, [r0, #0]
 8001db0:	681a      	ldr	r2, [r3, #0]
 8001db2:	f022 020e 	bic.w	r2, r2, #14
 8001db6:	601a      	str	r2, [r3, #0]
 8001db8:	681a      	ldr	r2, [r3, #0]
 8001dba:	f022 0201 	bic.w	r2, r2, #1
 8001dbe:	601a      	str	r2, [r3, #0]
 8001dc0:	4a18      	ldr	r2, [pc, #96]	; (8001e24 <HAL_DMA_Abort_IT+0x88>)
 8001dc2:	4293      	cmp	r3, r2
 8001dc4:	d01f      	beq.n	8001e06 <HAL_DMA_Abort_IT+0x6a>
 8001dc6:	3214      	adds	r2, #20
 8001dc8:	4293      	cmp	r3, r2
 8001dca:	d01e      	beq.n	8001e0a <HAL_DMA_Abort_IT+0x6e>
 8001dcc:	3214      	adds	r2, #20
 8001dce:	4293      	cmp	r3, r2
 8001dd0:	d01d      	beq.n	8001e0e <HAL_DMA_Abort_IT+0x72>
 8001dd2:	3214      	adds	r2, #20
 8001dd4:	4293      	cmp	r3, r2
 8001dd6:	d01d      	beq.n	8001e14 <HAL_DMA_Abort_IT+0x78>
 8001dd8:	3214      	adds	r2, #20
 8001dda:	4293      	cmp	r3, r2
 8001ddc:	d01d      	beq.n	8001e1a <HAL_DMA_Abort_IT+0x7e>
 8001dde:	3214      	adds	r2, #20
 8001de0:	4293      	cmp	r3, r2
 8001de2:	bf0c      	ite	eq
 8001de4:	f44f 1380 	moveq.w	r3, #1048576	; 0x100000
 8001de8:	f04f 7380 	movne.w	r3, #16777216	; 0x1000000
 8001dec:	4a0e      	ldr	r2, [pc, #56]	; (8001e28 <HAL_DMA_Abort_IT+0x8c>)
 8001dee:	2400      	movs	r4, #0
 8001df0:	6053      	str	r3, [r2, #4]
 8001df2:	2301      	movs	r3, #1
 8001df4:	f880 3021 	strb.w	r3, [r0, #33]	; 0x21
 8001df8:	6b43      	ldr	r3, [r0, #52]	; 0x34
 8001dfa:	f880 4020 	strb.w	r4, [r0, #32]
 8001dfe:	b17b      	cbz	r3, 8001e20 <HAL_DMA_Abort_IT+0x84>
 8001e00:	4798      	blx	r3
 8001e02:	4620      	mov	r0, r4
 8001e04:	e7d2      	b.n	8001dac <HAL_DMA_Abort_IT+0x10>
 8001e06:	2301      	movs	r3, #1
 8001e08:	e7f0      	b.n	8001dec <HAL_DMA_Abort_IT+0x50>
 8001e0a:	2310      	movs	r3, #16
 8001e0c:	e7ee      	b.n	8001dec <HAL_DMA_Abort_IT+0x50>
 8001e0e:	f44f 7380 	mov.w	r3, #256	; 0x100
 8001e12:	e7eb      	b.n	8001dec <HAL_DMA_Abort_IT+0x50>
 8001e14:	f44f 5380 	mov.w	r3, #4096	; 0x1000
 8001e18:	e7e8      	b.n	8001dec <HAL_DMA_Abort_IT+0x50>
 8001e1a:	f44f 3380 	mov.w	r3, #65536	; 0x10000
 8001e1e:	e7e5      	b.n	8001dec <HAL_DMA_Abort_IT+0x50>
 8001e20:	4618      	mov	r0, r3
 8001e22:	e7c3      	b.n	8001dac <HAL_DMA_Abort_IT+0x10>
 8001e24:	40020008 	.word	0x40020008
 8001e28:	40020000 	.word	0x40020000

08001e2c <HAL_DMA_IRQHandler>:
 8001e2c:	b470      	push	{r4, r5, r6}
 8001e2e:	2504      	movs	r5, #4
 8001e30:	6bc6      	ldr	r6, [r0, #60]	; 0x3c
 8001e32:	6c02      	ldr	r2, [r0, #64]	; 0x40
 8001e34:	6834      	ldr	r4, [r6, #0]
 8001e36:	6803      	ldr	r3, [r0, #0]
 8001e38:	4095      	lsls	r5, r2
 8001e3a:	4225      	tst	r5, r4
 8001e3c:	6819      	ldr	r1, [r3, #0]
 8001e3e:	d032      	beq.n	8001ea6 <HAL_DMA_IRQHandler+0x7a>
 8001e40:	074d      	lsls	r5, r1, #29
 8001e42:	d530      	bpl.n	8001ea6 <HAL_DMA_IRQHandler+0x7a>
 8001e44:	681a      	ldr	r2, [r3, #0]
 8001e46:	0696      	lsls	r6, r2, #26
 8001e48:	bf5e      	ittt	pl
 8001e4a:	681a      	ldrpl	r2, [r3, #0]
 8001e4c:	f022 0204 	bicpl.w	r2, r2, #4
 8001e50:	601a      	strpl	r2, [r3, #0]
 8001e52:	4a3e      	ldr	r2, [pc, #248]	; (8001f4c <HAL_DMA_IRQHandler+0x120>)
 8001e54:	4293      	cmp	r3, r2
 8001e56:	d019      	beq.n	8001e8c <HAL_DMA_IRQHandler+0x60>
 8001e58:	3214      	adds	r2, #20
 8001e5a:	4293      	cmp	r3, r2
 8001e5c:	d018      	beq.n	8001e90 <HAL_DMA_IRQHandler+0x64>
 8001e5e:	3214      	adds	r2, #20
 8001e60:	4293      	cmp	r3, r2
 8001e62:	d017      	beq.n	8001e94 <HAL_DMA_IRQHandler+0x68>
 8001e64:	3214      	adds	r2, #20
 8001e66:	4293      	cmp	r3, r2
 8001e68:	d017      	beq.n	8001e9a <HAL_DMA_IRQHandler+0x6e>
 8001e6a:	3214      	adds	r2, #20
 8001e6c:	4293      	cmp	r3, r2
 8001e6e:	d017      	beq.n	8001ea0 <HAL_DMA_IRQHandler+0x74>
 8001e70:	3214      	adds	r2, #20
 8001e72:	4293      	cmp	r3, r2
 8001e74:	bf0c      	ite	eq
 8001e76:	f44f 0380 	moveq.w	r3, #4194304	; 0x400000
 8001e7a:	f04f 6380 	movne.w	r3, #67108864	; 0x4000000
 8001e7e:	4a34      	ldr	r2, [pc, #208]	; (8001f50 <HAL_DMA_IRQHandler+0x124>)
 8001e80:	6053      	str	r3, [r2, #4]
 8001e82:	6ac3      	ldr	r3, [r0, #44]	; 0x2c
 8001e84:	2b00      	cmp	r3, #0
 8001e86:	d05e      	beq.n	8001f46 <HAL_DMA_IRQHandler+0x11a>
 8001e88:	bc70      	pop	{r4, r5, r6}
 8001e8a:	4718      	bx	r3
 8001e8c:	2304      	movs	r3, #4
 8001e8e:	e7f6      	b.n	8001e7e <HAL_DMA_IRQHandler+0x52>
 8001e90:	2340      	movs	r3, #64	; 0x40
 8001e92:	e7f4      	b.n	8001e7e <HAL_DMA_IRQHandler+0x52>
 8001e94:	f44f 6380 	mov.w	r3, #1024	; 0x400
 8001e98:	e7f1      	b.n	8001e7e <HAL_DMA_IRQHandler+0x52>
 8001e9a:	f44f 4380 	mov.w	r3, #16384	; 0x4000
 8001e9e:	e7ee      	b.n	8001e7e <HAL_DMA_IRQHandler+0x52>
 8001ea0:	f44f 2380 	mov.w	r3, #262144	; 0x40000
 8001ea4:	e7eb      	b.n	8001e7e <HAL_DMA_IRQHandler+0x52>
 8001ea6:	2502      	movs	r5, #2
 8001ea8:	4095      	lsls	r5, r2
 8001eaa:	4225      	tst	r5, r4
 8001eac:	d035      	beq.n	8001f1a <HAL_DMA_IRQHandler+0xee>
 8001eae:	078d      	lsls	r5, r1, #30
 8001eb0:	d533      	bpl.n	8001f1a <HAL_DMA_IRQHandler+0xee>
 8001eb2:	681a      	ldr	r2, [r3, #0]
 8001eb4:	0694      	lsls	r4, r2, #26
 8001eb6:	d406      	bmi.n	8001ec6 <HAL_DMA_IRQHandler+0x9a>
 8001eb8:	681a      	ldr	r2, [r3, #0]
 8001eba:	f022 020a 	bic.w	r2, r2, #10
 8001ebe:	601a      	str	r2, [r3, #0]
 8001ec0:	2201      	movs	r2, #1
 8001ec2:	f880 2021 	strb.w	r2, [r0, #33]	; 0x21
 8001ec6:	4a21      	ldr	r2, [pc, #132]	; (8001f4c <HAL_DMA_IRQHandler+0x120>)
 8001ec8:	4293      	cmp	r3, r2
 8001eca:	d019      	beq.n	8001f00 <HAL_DMA_IRQHandler+0xd4>
 8001ecc:	3214      	adds	r2, #20
 8001ece:	4293      	cmp	r3, r2
 8001ed0:	d018      	beq.n	8001f04 <HAL_DMA_IRQHandler+0xd8>
 8001ed2:	3214      	adds	r2, #20
 8001ed4:	4293      	cmp	r3, r2
 8001ed6:	d017      	beq.n	8001f08 <HAL_DMA_IRQHandler+0xdc>
 8001ed8:	3214      	adds	r2, #20
 8001eda:	4293      	cmp	r3, r2
 8001edc:	d017      	beq.n	8001f0e <HAL_DMA_IRQHandler+0xe2>
 8001ede:	3214      	adds	r2, #20
 8001ee0:	4293      	cmp	r3, r2
 8001ee2:	d017      	beq.n	8001f14 <HAL_DMA_IRQHandler+0xe8>
 8001ee4:	3214      	adds	r2, #20
 8001ee6:	4293      	cmp	r3, r2
 8001ee8:	bf0c      	ite	eq
 8001eea:	f44f 1300 	moveq.w	r3, #2097152	; 0x200000
 8001eee:	f04f 7300 	movne.w	r3, #33554432	; 0x2000000
 8001ef2:	4a17      	ldr	r2, [pc, #92]	; (8001f50 <HAL_DMA_IRQHandler+0x124>)
 8001ef4:	6053      	str	r3, [r2, #4]
 8001ef6:	2300      	movs	r3, #0
 8001ef8:	f880 3020 	strb.w	r3, [r0, #32]
 8001efc:	6a83      	ldr	r3, [r0, #40]	; 0x28
 8001efe:	e7c1      	b.n	8001e84 <HAL_DMA_IRQHandler+0x58>
 8001f00:	2302      	movs	r3, #2
 8001f02:	e7f6      	b.n	8001ef2 <HAL_DMA_IRQHandler+0xc6>
 8001f04:	2320      	movs	r3, #32
 8001f06:	e7f4      	b.n	8001ef2 <HAL_DMA_IRQHandler+0xc6>
 8001f08:	f44f 7300 	mov.w	r3, #512	; 0x200
 8001f0c:	e7f1      	b.n	8001ef2 <HAL_DMA_IRQHandler+0xc6>
 8001f0e:	f44f 5300 	mov.w	r3, #8192	; 0x2000
 8001f12:	e7ee      	b.n	8001ef2 <HAL_DMA_IRQHandler+0xc6>
 8001f14:	f44f 3300 	mov.w	r3, #131072	; 0x20000
 8001f18:	e7eb      	b.n	8001ef2 <HAL_DMA_IRQHandler+0xc6>
 8001f1a:	2508      	movs	r5, #8
 8001f1c:	4095      	lsls	r5, r2
 8001f1e:	4225      	tst	r5, r4
 8001f20:	d011      	beq.n	8001f46 <HAL_DMA_IRQHandler+0x11a>
 8001f22:	0709      	lsls	r1, r1, #28
 8001f24:	d50f      	bpl.n	8001f46 <HAL_DMA_IRQHandler+0x11a>
 8001f26:	6819      	ldr	r1, [r3, #0]
 8001f28:	f021 010e 	bic.w	r1, r1, #14
 8001f2c:	6019      	str	r1, [r3, #0]
 8001f2e:	2301      	movs	r3, #1
 8001f30:	fa03 f202 	lsl.w	r2, r3, r2
 8001f34:	6072      	str	r2, [r6, #4]
 8001f36:	6383      	str	r3, [r0, #56]	; 0x38
 8001f38:	f880 3021 	strb.w	r3, [r0, #33]	; 0x21
 8001f3c:	2300      	movs	r3, #0
 8001f3e:	f880 3020 	strb.w	r3, [r0, #32]
 8001f42:	6b03      	ldr	r3, [r0, #48]	; 0x30
 8001f44:	e79e      	b.n	8001e84 <HAL_DMA_IRQHandler+0x58>
 8001f46:	bc70      	pop	{r4, r5, r6}
 8001f48:	4770      	bx	lr
 8001f4a:	bf00      	nop
 8001f4c:	40020008 	.word	0x40020008
 8001f50:	40020000 	.word	0x40020000

08001f54 <HAL_GPIO_Init>:
 8001f54:	e92d 4ff7 	stmdb	sp!, {r0, r1, r2, r4, r5, r6, r7, r8, r9, sl, fp, lr}
 8001f58:	2200      	movs	r2, #0
 8001f5a:	4616      	mov	r6, r2
 8001f5c:	4f64      	ldr	r7, [pc, #400]	; (80020f0 <HAL_GPIO_Init+0x19c>)
 8001f5e:	4b65      	ldr	r3, [pc, #404]	; (80020f4 <HAL_GPIO_Init+0x1a0>)
 8001f60:	f8df c194 	ldr.w	ip, [pc, #404]	; 80020f8 <HAL_GPIO_Init+0x1a4>
 8001f64:	f8df e194 	ldr.w	lr, [pc, #404]	; 80020fc <HAL_GPIO_Init+0x1a8>
 8001f68:	680d      	ldr	r5, [r1, #0]
 8001f6a:	fa35 f406 	lsrs.w	r4, r5, r6
 8001f6e:	d102      	bne.n	8001f76 <HAL_GPIO_Init+0x22>
 8001f70:	b003      	add	sp, #12
 8001f72:	e8bd 8ff0 	ldmia.w	sp!, {r4, r5, r6, r7, r8, r9, sl, fp, pc}
 8001f76:	f04f 0801 	mov.w	r8, #1
 8001f7a:	fa08 f806 	lsl.w	r8, r8, r6
 8001f7e:	ea05 0408 	and.w	r4, r5, r8
 8001f82:	ea38 0505 	bics.w	r5, r8, r5
 8001f86:	d17b      	bne.n	8002080 <HAL_GPIO_Init+0x12c>
 8001f88:	684d      	ldr	r5, [r1, #4]
 8001f8a:	2d03      	cmp	r5, #3
 8001f8c:	d807      	bhi.n	8001f9e <HAL_GPIO_Init+0x4a>
 8001f8e:	3d01      	subs	r5, #1
 8001f90:	2d02      	cmp	r5, #2
 8001f92:	f200 8088 	bhi.w	80020a6 <HAL_GPIO_Init+0x152>
 8001f96:	e8df f005 	tbb	[pc, r5]
 8001f9a:	9b96      	.short	0x9b96
 8001f9c:	a1          	.byte	0xa1
 8001f9d:	00          	.byte	0x00
 8001f9e:	2d12      	cmp	r5, #18
 8001fa0:	f000 8099 	beq.w	80020d6 <HAL_GPIO_Init+0x182>
 8001fa4:	d86e      	bhi.n	8002084 <HAL_GPIO_Init+0x130>
 8001fa6:	2d11      	cmp	r5, #17
 8001fa8:	f000 808f 	beq.w	80020ca <HAL_GPIO_Init+0x176>
 8001fac:	2cff      	cmp	r4, #255	; 0xff
 8001fae:	bf98      	it	ls
 8001fb0:	4682      	movls	sl, r0
 8001fb2:	f04f 090f 	mov.w	r9, #15
 8001fb6:	bf88      	it	hi
 8001fb8:	f100 0a04 	addhi.w	sl, r0, #4
 8001fbc:	ea4f 0586 	mov.w	r5, r6, lsl #2
 8001fc0:	f8da 8000 	ldr.w	r8, [sl]
 8001fc4:	bf88      	it	hi
 8001fc6:	3d20      	subhi	r5, #32
 8001fc8:	fa09 fb05 	lsl.w	fp, r9, r5
 8001fcc:	ea28 080b 	bic.w	r8, r8, fp
 8001fd0:	fa02 f505 	lsl.w	r5, r2, r5
 8001fd4:	ea48 0505 	orr.w	r5, r8, r5
 8001fd8:	f8ca 5000 	str.w	r5, [sl]
 8001fdc:	f8d1 a004 	ldr.w	sl, [r1, #4]
 8001fe0:	f01a 5f80 	tst.w	sl, #268435456	; 0x10000000
 8001fe4:	d04c      	beq.n	8002080 <HAL_GPIO_Init+0x12c>
 8001fe6:	69bd      	ldr	r5, [r7, #24]
 8001fe8:	f026 0803 	bic.w	r8, r6, #3
 8001fec:	f045 0501 	orr.w	r5, r5, #1
 8001ff0:	61bd      	str	r5, [r7, #24]
 8001ff2:	69bd      	ldr	r5, [r7, #24]
 8001ff4:	f108 4880 	add.w	r8, r8, #1073741824	; 0x40000000
 8001ff8:	f005 0501 	and.w	r5, r5, #1
 8001ffc:	9501      	str	r5, [sp, #4]
 8001ffe:	f508 3880 	add.w	r8, r8, #65536	; 0x10000
 8002002:	f006 0b03 	and.w	fp, r6, #3
 8002006:	9d01      	ldr	r5, [sp, #4]
 8002008:	ea4f 0b8b 	mov.w	fp, fp, lsl #2
 800200c:	f8d8 5008 	ldr.w	r5, [r8, #8]
 8002010:	fa09 f90b 	lsl.w	r9, r9, fp
 8002014:	ea25 0909 	bic.w	r9, r5, r9
 8002018:	4d39      	ldr	r5, [pc, #228]	; (8002100 <HAL_GPIO_Init+0x1ac>)
 800201a:	42a8      	cmp	r0, r5
 800201c:	d062      	beq.n	80020e4 <HAL_GPIO_Init+0x190>
 800201e:	f505 6580 	add.w	r5, r5, #1024	; 0x400
 8002022:	42a8      	cmp	r0, r5
 8002024:	d060      	beq.n	80020e8 <HAL_GPIO_Init+0x194>
 8002026:	f505 6580 	add.w	r5, r5, #1024	; 0x400
 800202a:	42a8      	cmp	r0, r5
 800202c:	d05e      	beq.n	80020ec <HAL_GPIO_Init+0x198>
 800202e:	f505 6580 	add.w	r5, r5, #1024	; 0x400
 8002032:	42a8      	cmp	r0, r5
 8002034:	bf0c      	ite	eq
 8002036:	2503      	moveq	r5, #3
 8002038:	2504      	movne	r5, #4
 800203a:	fa05 f50b 	lsl.w	r5, r5, fp
 800203e:	ea45 0509 	orr.w	r5, r5, r9
 8002042:	f8c8 5008 	str.w	r5, [r8, #8]
 8002046:	689d      	ldr	r5, [r3, #8]
 8002048:	f41a 1f80 	tst.w	sl, #1048576	; 0x100000
 800204c:	bf14      	ite	ne
 800204e:	4325      	orrne	r5, r4
 8002050:	43a5      	biceq	r5, r4
 8002052:	609d      	str	r5, [r3, #8]
 8002054:	68dd      	ldr	r5, [r3, #12]
 8002056:	f41a 1f00 	tst.w	sl, #2097152	; 0x200000
 800205a:	bf14      	ite	ne
 800205c:	4325      	orrne	r5, r4
 800205e:	43a5      	biceq	r5, r4
 8002060:	60dd      	str	r5, [r3, #12]
 8002062:	685d      	ldr	r5, [r3, #4]
 8002064:	f41a 3f00 	tst.w	sl, #131072	; 0x20000
 8002068:	bf14      	ite	ne
 800206a:	4325      	orrne	r5, r4
 800206c:	43a5      	biceq	r5, r4
 800206e:	605d      	str	r5, [r3, #4]
 8002070:	681d      	ldr	r5, [r3, #0]
 8002072:	f41a 3f80 	tst.w	sl, #65536	; 0x10000
 8002076:	bf14      	ite	ne
 8002078:	432c      	orrne	r4, r5
 800207a:	ea25 0404 	biceq.w	r4, r5, r4
 800207e:	601c      	str	r4, [r3, #0]
 8002080:	3601      	adds	r6, #1
 8002082:	e771      	b.n	8001f68 <HAL_GPIO_Init+0x14>
 8002084:	f8df 907c 	ldr.w	r9, [pc, #124]	; 8002104 <HAL_GPIO_Init+0x1b0>
 8002088:	454d      	cmp	r5, r9
 800208a:	d00c      	beq.n	80020a6 <HAL_GPIO_Init+0x152>
 800208c:	d817      	bhi.n	80020be <HAL_GPIO_Init+0x16a>
 800208e:	f5a9 1980 	sub.w	r9, r9, #1048576	; 0x100000
 8002092:	454d      	cmp	r5, r9
 8002094:	d007      	beq.n	80020a6 <HAL_GPIO_Init+0x152>
 8002096:	f509 2970 	add.w	r9, r9, #983040	; 0xf0000
 800209a:	454d      	cmp	r5, r9
 800209c:	d003      	beq.n	80020a6 <HAL_GPIO_Init+0x152>
 800209e:	f5a9 1980 	sub.w	r9, r9, #1048576	; 0x100000
 80020a2:	454d      	cmp	r5, r9
 80020a4:	d182      	bne.n	8001fac <HAL_GPIO_Init+0x58>
 80020a6:	688a      	ldr	r2, [r1, #8]
 80020a8:	b1d2      	cbz	r2, 80020e0 <HAL_GPIO_Init+0x18c>
 80020aa:	2a01      	cmp	r2, #1
 80020ac:	bf08      	it	eq
 80020ae:	f8c0 8010 	streq.w	r8, [r0, #16]
 80020b2:	f04f 0208 	mov.w	r2, #8
 80020b6:	bf18      	it	ne
 80020b8:	f8c0 8014 	strne.w	r8, [r0, #20]
 80020bc:	e776      	b.n	8001fac <HAL_GPIO_Init+0x58>
 80020be:	4565      	cmp	r5, ip
 80020c0:	d0f1      	beq.n	80020a6 <HAL_GPIO_Init+0x152>
 80020c2:	4575      	cmp	r5, lr
 80020c4:	e7ee      	b.n	80020a4 <HAL_GPIO_Init+0x150>
 80020c6:	68ca      	ldr	r2, [r1, #12]
 80020c8:	e770      	b.n	8001fac <HAL_GPIO_Init+0x58>
 80020ca:	68ca      	ldr	r2, [r1, #12]
 80020cc:	3204      	adds	r2, #4
 80020ce:	e76d      	b.n	8001fac <HAL_GPIO_Init+0x58>
 80020d0:	68ca      	ldr	r2, [r1, #12]
 80020d2:	3208      	adds	r2, #8
 80020d4:	e76a      	b.n	8001fac <HAL_GPIO_Init+0x58>
 80020d6:	68ca      	ldr	r2, [r1, #12]
 80020d8:	320c      	adds	r2, #12
 80020da:	e767      	b.n	8001fac <HAL_GPIO_Init+0x58>
 80020dc:	2200      	movs	r2, #0
 80020de:	e765      	b.n	8001fac <HAL_GPIO_Init+0x58>
 80020e0:	2204      	movs	r2, #4
 80020e2:	e763      	b.n	8001fac <HAL_GPIO_Init+0x58>
 80020e4:	2500      	movs	r5, #0
 80020e6:	e7a8      	b.n	800203a <HAL_GPIO_Init+0xe6>
 80020e8:	2501      	movs	r5, #1
 80020ea:	e7a6      	b.n	800203a <HAL_GPIO_Init+0xe6>
 80020ec:	2502      	movs	r5, #2
 80020ee:	e7a4      	b.n	800203a <HAL_GPIO_Init+0xe6>
 80020f0:	40021000 	.word	0x40021000
 80020f4:	40010400 	.word	0x40010400
 80020f8:	10310000 	.word	0x10310000
 80020fc:	10320000 	.word	0x10320000
 8002100:	40010800 	.word	0x40010800
 8002104:	10220000 	.word	0x10220000

08002108 <HAL_GPIO_WritePin>:
 8002108:	b10a      	cbz	r2, 800210e <HAL_GPIO_WritePin+0x6>
 800210a:	6101      	str	r1, [r0, #16]
 800210c:	4770      	bx	lr
 800210e:	0409      	lsls	r1, r1, #16
 8002110:	e7fb      	b.n	800210a <HAL_GPIO_WritePin+0x2>
	...

08002114 <HAL_RCC_OscConfig>:
 8002114:	e92d 41f3 	stmdb	sp!, {r0, r1, r4, r5, r6, r7, r8, lr}
 8002118:	4605      	mov	r5, r0
 800211a:	b338      	cbz	r0, 800216c <HAL_RCC_OscConfig+0x58>
 800211c:	6803      	ldr	r3, [r0, #0]
 800211e:	07db      	lsls	r3, r3, #31
 8002120:	d410      	bmi.n	8002144 <HAL_RCC_OscConfig+0x30>
 8002122:	682b      	ldr	r3, [r5, #0]
 8002124:	079f      	lsls	r7, r3, #30
 8002126:	d45e      	bmi.n	80021e6 <HAL_RCC_OscConfig+0xd2>
 8002128:	682b      	ldr	r3, [r5, #0]
 800212a:	0719      	lsls	r1, r3, #28
 800212c:	f100 8095 	bmi.w	800225a <HAL_RCC_OscConfig+0x146>
 8002130:	682b      	ldr	r3, [r5, #0]
 8002132:	075a      	lsls	r2, r3, #29
 8002134:	f100 80c1 	bmi.w	80022ba <HAL_RCC_OscConfig+0x1a6>
 8002138:	69e8      	ldr	r0, [r5, #28]
 800213a:	2800      	cmp	r0, #0
 800213c:	f040 812c 	bne.w	8002398 <HAL_RCC_OscConfig+0x284>
 8002140:	2000      	movs	r0, #0
 8002142:	e029      	b.n	8002198 <HAL_RCC_OscConfig+0x84>
 8002144:	4c90      	ldr	r4, [pc, #576]	; (8002388 <HAL_RCC_OscConfig+0x274>)
 8002146:	6863      	ldr	r3, [r4, #4]
 8002148:	f003 030c 	and.w	r3, r3, #12
 800214c:	2b04      	cmp	r3, #4
 800214e:	d007      	beq.n	8002160 <HAL_RCC_OscConfig+0x4c>
 8002150:	6863      	ldr	r3, [r4, #4]
 8002152:	f003 030c 	and.w	r3, r3, #12
 8002156:	2b08      	cmp	r3, #8
 8002158:	d10a      	bne.n	8002170 <HAL_RCC_OscConfig+0x5c>
 800215a:	6863      	ldr	r3, [r4, #4]
 800215c:	03de      	lsls	r6, r3, #15
 800215e:	d507      	bpl.n	8002170 <HAL_RCC_OscConfig+0x5c>
 8002160:	6823      	ldr	r3, [r4, #0]
 8002162:	039c      	lsls	r4, r3, #14
 8002164:	d5dd      	bpl.n	8002122 <HAL_RCC_OscConfig+0xe>
 8002166:	686b      	ldr	r3, [r5, #4]
 8002168:	2b00      	cmp	r3, #0
 800216a:	d1da      	bne.n	8002122 <HAL_RCC_OscConfig+0xe>
 800216c:	2001      	movs	r0, #1
 800216e:	e013      	b.n	8002198 <HAL_RCC_OscConfig+0x84>
 8002170:	686b      	ldr	r3, [r5, #4]
 8002172:	f5b3 3f80 	cmp.w	r3, #65536	; 0x10000
 8002176:	d112      	bne.n	800219e <HAL_RCC_OscConfig+0x8a>
 8002178:	6823      	ldr	r3, [r4, #0]
 800217a:	f443 3380 	orr.w	r3, r3, #65536	; 0x10000
 800217e:	6023      	str	r3, [r4, #0]
 8002180:	f7ff fd20 	bl	8001bc4 <HAL_GetTick>
 8002184:	4606      	mov	r6, r0
 8002186:	6823      	ldr	r3, [r4, #0]
 8002188:	0398      	lsls	r0, r3, #14
 800218a:	d4ca      	bmi.n	8002122 <HAL_RCC_OscConfig+0xe>
 800218c:	f7ff fd1a 	bl	8001bc4 <HAL_GetTick>
 8002190:	1b80      	subs	r0, r0, r6
 8002192:	2864      	cmp	r0, #100	; 0x64
 8002194:	d9f7      	bls.n	8002186 <HAL_RCC_OscConfig+0x72>
 8002196:	2003      	movs	r0, #3
 8002198:	b002      	add	sp, #8
 800219a:	e8bd 81f0 	ldmia.w	sp!, {r4, r5, r6, r7, r8, pc}
 800219e:	b99b      	cbnz	r3, 80021c8 <HAL_RCC_OscConfig+0xb4>
 80021a0:	6823      	ldr	r3, [r4, #0]
 80021a2:	f423 3380 	bic.w	r3, r3, #65536	; 0x10000
 80021a6:	6023      	str	r3, [r4, #0]
 80021a8:	6823      	ldr	r3, [r4, #0]
 80021aa:	f423 2380 	bic.w	r3, r3, #262144	; 0x40000
 80021ae:	6023      	str	r3, [r4, #0]
 80021b0:	f7ff fd08 	bl	8001bc4 <HAL_GetTick>
 80021b4:	4606      	mov	r6, r0
 80021b6:	6823      	ldr	r3, [r4, #0]
 80021b8:	0399      	lsls	r1, r3, #14
 80021ba:	d5b2      	bpl.n	8002122 <HAL_RCC_OscConfig+0xe>
 80021bc:	f7ff fd02 	bl	8001bc4 <HAL_GetTick>
 80021c0:	1b80      	subs	r0, r0, r6
 80021c2:	2864      	cmp	r0, #100	; 0x64
 80021c4:	d9f7      	bls.n	80021b6 <HAL_RCC_OscConfig+0xa2>
 80021c6:	e7e6      	b.n	8002196 <HAL_RCC_OscConfig+0x82>
 80021c8:	f5b3 2fa0 	cmp.w	r3, #327680	; 0x50000
 80021cc:	6823      	ldr	r3, [r4, #0]
 80021ce:	d103      	bne.n	80021d8 <HAL_RCC_OscConfig+0xc4>
 80021d0:	f443 2380 	orr.w	r3, r3, #262144	; 0x40000
 80021d4:	6023      	str	r3, [r4, #0]
 80021d6:	e7cf      	b.n	8002178 <HAL_RCC_OscConfig+0x64>
 80021d8:	f423 3380 	bic.w	r3, r3, #65536	; 0x10000
 80021dc:	6023      	str	r3, [r4, #0]
 80021de:	6823      	ldr	r3, [r4, #0]
 80021e0:	f423 2380 	bic.w	r3, r3, #262144	; 0x40000
 80021e4:	e7cb      	b.n	800217e <HAL_RCC_OscConfig+0x6a>
 80021e6:	4c68      	ldr	r4, [pc, #416]	; (8002388 <HAL_RCC_OscConfig+0x274>)
 80021e8:	6863      	ldr	r3, [r4, #4]
 80021ea:	f013 0f0c 	tst.w	r3, #12
 80021ee:	d007      	beq.n	8002200 <HAL_RCC_OscConfig+0xec>
 80021f0:	6863      	ldr	r3, [r4, #4]
 80021f2:	f003 030c 	and.w	r3, r3, #12
 80021f6:	2b08      	cmp	r3, #8
 80021f8:	d110      	bne.n	800221c <HAL_RCC_OscConfig+0x108>
 80021fa:	6863      	ldr	r3, [r4, #4]
 80021fc:	03da      	lsls	r2, r3, #15
 80021fe:	d40d      	bmi.n	800221c <HAL_RCC_OscConfig+0x108>
 8002200:	6823      	ldr	r3, [r4, #0]
 8002202:	079b      	lsls	r3, r3, #30
 8002204:	d502      	bpl.n	800220c <HAL_RCC_OscConfig+0xf8>
 8002206:	692b      	ldr	r3, [r5, #16]
 8002208:	2b01      	cmp	r3, #1
 800220a:	d1af      	bne.n	800216c <HAL_RCC_OscConfig+0x58>
 800220c:	6823      	ldr	r3, [r4, #0]
 800220e:	696a      	ldr	r2, [r5, #20]
 8002210:	f023 03f8 	bic.w	r3, r3, #248	; 0xf8
 8002214:	ea43 03c2 	orr.w	r3, r3, r2, lsl #3
 8002218:	6023      	str	r3, [r4, #0]
 800221a:	e785      	b.n	8002128 <HAL_RCC_OscConfig+0x14>
 800221c:	692a      	ldr	r2, [r5, #16]
 800221e:	4b5b      	ldr	r3, [pc, #364]	; (800238c <HAL_RCC_OscConfig+0x278>)
 8002220:	b16a      	cbz	r2, 800223e <HAL_RCC_OscConfig+0x12a>
 8002222:	2201      	movs	r2, #1
 8002224:	601a      	str	r2, [r3, #0]
 8002226:	f7ff fccd 	bl	8001bc4 <HAL_GetTick>
 800222a:	4606      	mov	r6, r0
 800222c:	6823      	ldr	r3, [r4, #0]
 800222e:	079f      	lsls	r7, r3, #30
 8002230:	d4ec      	bmi.n	800220c <HAL_RCC_OscConfig+0xf8>
 8002232:	f7ff fcc7 	bl	8001bc4 <HAL_GetTick>
 8002236:	1b80      	subs	r0, r0, r6
 8002238:	2802      	cmp	r0, #2
 800223a:	d9f7      	bls.n	800222c <HAL_RCC_OscConfig+0x118>
 800223c:	e7ab      	b.n	8002196 <HAL_RCC_OscConfig+0x82>
 800223e:	601a      	str	r2, [r3, #0]
 8002240:	f7ff fcc0 	bl	8001bc4 <HAL_GetTick>
 8002244:	4606      	mov	r6, r0
 8002246:	6823      	ldr	r3, [r4, #0]
 8002248:	0798      	lsls	r0, r3, #30
 800224a:	f57f af6d 	bpl.w	8002128 <HAL_RCC_OscConfig+0x14>
 800224e:	f7ff fcb9 	bl	8001bc4 <HAL_GetTick>
 8002252:	1b80      	subs	r0, r0, r6
 8002254:	2802      	cmp	r0, #2
 8002256:	d9f6      	bls.n	8002246 <HAL_RCC_OscConfig+0x132>
 8002258:	e79d      	b.n	8002196 <HAL_RCC_OscConfig+0x82>
 800225a:	69aa      	ldr	r2, [r5, #24]
 800225c:	4e4a      	ldr	r6, [pc, #296]	; (8002388 <HAL_RCC_OscConfig+0x274>)
 800225e:	4b4b      	ldr	r3, [pc, #300]	; (800238c <HAL_RCC_OscConfig+0x278>)
 8002260:	b1e2      	cbz	r2, 800229c <HAL_RCC_OscConfig+0x188>
 8002262:	2201      	movs	r2, #1
 8002264:	f8c3 2480 	str.w	r2, [r3, #1152]	; 0x480
 8002268:	f7ff fcac 	bl	8001bc4 <HAL_GetTick>
 800226c:	4604      	mov	r4, r0
 800226e:	6a73      	ldr	r3, [r6, #36]	; 0x24
 8002270:	079b      	lsls	r3, r3, #30
 8002272:	d50d      	bpl.n	8002290 <HAL_RCC_OscConfig+0x17c>
 8002274:	f44f 52fa 	mov.w	r2, #8000	; 0x1f40
 8002278:	4b45      	ldr	r3, [pc, #276]	; (8002390 <HAL_RCC_OscConfig+0x27c>)
 800227a:	681b      	ldr	r3, [r3, #0]
 800227c:	fbb3 f3f2 	udiv	r3, r3, r2
 8002280:	9301      	str	r3, [sp, #4]
 8002282:	bf00      	nop
 8002284:	9b01      	ldr	r3, [sp, #4]
 8002286:	1e5a      	subs	r2, r3, #1
 8002288:	9201      	str	r2, [sp, #4]
 800228a:	2b00      	cmp	r3, #0
 800228c:	d1f9      	bne.n	8002282 <HAL_RCC_OscConfig+0x16e>
 800228e:	e74f      	b.n	8002130 <HAL_RCC_OscConfig+0x1c>
 8002290:	f7ff fc98 	bl	8001bc4 <HAL_GetTick>
 8002294:	1b00      	subs	r0, r0, r4
 8002296:	2802      	cmp	r0, #2
 8002298:	d9e9      	bls.n	800226e <HAL_RCC_OscConfig+0x15a>
 800229a:	e77c      	b.n	8002196 <HAL_RCC_OscConfig+0x82>
 800229c:	f8c3 2480 	str.w	r2, [r3, #1152]	; 0x480
 80022a0:	f7ff fc90 	bl	8001bc4 <HAL_GetTick>
 80022a4:	4604      	mov	r4, r0
 80022a6:	6a73      	ldr	r3, [r6, #36]	; 0x24
 80022a8:	079f      	lsls	r7, r3, #30
 80022aa:	f57f af41 	bpl.w	8002130 <HAL_RCC_OscConfig+0x1c>
 80022ae:	f7ff fc89 	bl	8001bc4 <HAL_GetTick>
 80022b2:	1b00      	subs	r0, r0, r4
 80022b4:	2802      	cmp	r0, #2
 80022b6:	d9f6      	bls.n	80022a6 <HAL_RCC_OscConfig+0x192>
 80022b8:	e76d      	b.n	8002196 <HAL_RCC_OscConfig+0x82>
 80022ba:	4c33      	ldr	r4, [pc, #204]	; (8002388 <HAL_RCC_OscConfig+0x274>)
 80022bc:	69e3      	ldr	r3, [r4, #28]
 80022be:	00d8      	lsls	r0, r3, #3
 80022c0:	d424      	bmi.n	800230c <HAL_RCC_OscConfig+0x1f8>
 80022c2:	2701      	movs	r7, #1
 80022c4:	69e3      	ldr	r3, [r4, #28]
 80022c6:	f043 5380 	orr.w	r3, r3, #268435456	; 0x10000000
 80022ca:	61e3      	str	r3, [r4, #28]
 80022cc:	69e3      	ldr	r3, [r4, #28]
 80022ce:	f003 5380 	and.w	r3, r3, #268435456	; 0x10000000
 80022d2:	9300      	str	r3, [sp, #0]
 80022d4:	9b00      	ldr	r3, [sp, #0]
 80022d6:	4e2f      	ldr	r6, [pc, #188]	; (8002394 <HAL_RCC_OscConfig+0x280>)
 80022d8:	6833      	ldr	r3, [r6, #0]
 80022da:	05d9      	lsls	r1, r3, #23
 80022dc:	d518      	bpl.n	8002310 <HAL_RCC_OscConfig+0x1fc>
 80022de:	68eb      	ldr	r3, [r5, #12]
 80022e0:	2b01      	cmp	r3, #1
 80022e2:	d126      	bne.n	8002332 <HAL_RCC_OscConfig+0x21e>
 80022e4:	6a23      	ldr	r3, [r4, #32]
 80022e6:	f043 0301 	orr.w	r3, r3, #1
 80022ea:	6223      	str	r3, [r4, #32]
 80022ec:	f7ff fc6a 	bl	8001bc4 <HAL_GetTick>
 80022f0:	f241 3888 	movw	r8, #5000	; 0x1388
 80022f4:	4606      	mov	r6, r0
 80022f6:	6a23      	ldr	r3, [r4, #32]
 80022f8:	079b      	lsls	r3, r3, #30
 80022fa:	d53f      	bpl.n	800237c <HAL_RCC_OscConfig+0x268>
 80022fc:	2f00      	cmp	r7, #0
 80022fe:	f43f af1b 	beq.w	8002138 <HAL_RCC_OscConfig+0x24>
 8002302:	69e3      	ldr	r3, [r4, #28]
 8002304:	f023 5380 	bic.w	r3, r3, #268435456	; 0x10000000
 8002308:	61e3      	str	r3, [r4, #28]
 800230a:	e715      	b.n	8002138 <HAL_RCC_OscConfig+0x24>
 800230c:	2700      	movs	r7, #0
 800230e:	e7e2      	b.n	80022d6 <HAL_RCC_OscConfig+0x1c2>
 8002310:	6833      	ldr	r3, [r6, #0]
 8002312:	f443 7380 	orr.w	r3, r3, #256	; 0x100
 8002316:	6033      	str	r3, [r6, #0]
 8002318:	f7ff fc54 	bl	8001bc4 <HAL_GetTick>
 800231c:	4680      	mov	r8, r0
 800231e:	6833      	ldr	r3, [r6, #0]
 8002320:	05da      	lsls	r2, r3, #23
 8002322:	d4dc      	bmi.n	80022de <HAL_RCC_OscConfig+0x1ca>
 8002324:	f7ff fc4e 	bl	8001bc4 <HAL_GetTick>
 8002328:	eba0 0008 	sub.w	r0, r0, r8
 800232c:	2864      	cmp	r0, #100	; 0x64
 800232e:	d9f6      	bls.n	800231e <HAL_RCC_OscConfig+0x20a>
 8002330:	e731      	b.n	8002196 <HAL_RCC_OscConfig+0x82>
 8002332:	b9ab      	cbnz	r3, 8002360 <HAL_RCC_OscConfig+0x24c>
 8002334:	6a23      	ldr	r3, [r4, #32]
 8002336:	f241 3888 	movw	r8, #5000	; 0x1388
 800233a:	f023 0301 	bic.w	r3, r3, #1
 800233e:	6223      	str	r3, [r4, #32]
 8002340:	6a23      	ldr	r3, [r4, #32]
 8002342:	f023 0304 	bic.w	r3, r3, #4
 8002346:	6223      	str	r3, [r4, #32]
 8002348:	f7ff fc3c 	bl	8001bc4 <HAL_GetTick>
 800234c:	4606      	mov	r6, r0
 800234e:	6a23      	ldr	r3, [r4, #32]
 8002350:	0798      	lsls	r0, r3, #30
 8002352:	d5d3      	bpl.n	80022fc <HAL_RCC_OscConfig+0x1e8>
 8002354:	f7ff fc36 	bl	8001bc4 <HAL_GetTick>
 8002358:	1b80      	subs	r0, r0, r6
 800235a:	4540      	cmp	r0, r8
 800235c:	d9f7      	bls.n	800234e <HAL_RCC_OscConfig+0x23a>
 800235e:	e71a      	b.n	8002196 <HAL_RCC_OscConfig+0x82>
 8002360:	2b05      	cmp	r3, #5
 8002362:	6a23      	ldr	r3, [r4, #32]
 8002364:	d103      	bne.n	800236e <HAL_RCC_OscConfig+0x25a>
 8002366:	f043 0304 	orr.w	r3, r3, #4
 800236a:	6223      	str	r3, [r4, #32]
 800236c:	e7ba      	b.n	80022e4 <HAL_RCC_OscConfig+0x1d0>
 800236e:	f023 0301 	bic.w	r3, r3, #1
 8002372:	6223      	str	r3, [r4, #32]
 8002374:	6a23      	ldr	r3, [r4, #32]
 8002376:	f023 0304 	bic.w	r3, r3, #4
 800237a:	e7b6      	b.n	80022ea <HAL_RCC_OscConfig+0x1d6>
 800237c:	f7ff fc22 	bl	8001bc4 <HAL_GetTick>
 8002380:	1b80      	subs	r0, r0, r6
 8002382:	4540      	cmp	r0, r8
 8002384:	d9b7      	bls.n	80022f6 <HAL_RCC_OscConfig+0x1e2>
 8002386:	e706      	b.n	8002196 <HAL_RCC_OscConfig+0x82>
 8002388:	40021000 	.word	0x40021000
 800238c:	42420000 	.word	0x42420000
 8002390:	20000000 	.word	0x20000000
 8002394:	40007000 	.word	0x40007000
 8002398:	4c2a      	ldr	r4, [pc, #168]	; (8002444 <HAL_RCC_OscConfig+0x330>)
 800239a:	6863      	ldr	r3, [r4, #4]
 800239c:	f003 030c 	and.w	r3, r3, #12
 80023a0:	2b08      	cmp	r3, #8
 80023a2:	d03e      	beq.n	8002422 <HAL_RCC_OscConfig+0x30e>
 80023a4:	2200      	movs	r2, #0
 80023a6:	4b28      	ldr	r3, [pc, #160]	; (8002448 <HAL_RCC_OscConfig+0x334>)
 80023a8:	2802      	cmp	r0, #2
 80023aa:	661a      	str	r2, [r3, #96]	; 0x60
 80023ac:	d12c      	bne.n	8002408 <HAL_RCC_OscConfig+0x2f4>
 80023ae:	f7ff fc09 	bl	8001bc4 <HAL_GetTick>
 80023b2:	4606      	mov	r6, r0
 80023b4:	6823      	ldr	r3, [r4, #0]
 80023b6:	0199      	lsls	r1, r3, #6
 80023b8:	d420      	bmi.n	80023fc <HAL_RCC_OscConfig+0x2e8>
 80023ba:	6a2b      	ldr	r3, [r5, #32]
 80023bc:	f5b3 3f80 	cmp.w	r3, #65536	; 0x10000
 80023c0:	d105      	bne.n	80023ce <HAL_RCC_OscConfig+0x2ba>
 80023c2:	6862      	ldr	r2, [r4, #4]
 80023c4:	68a9      	ldr	r1, [r5, #8]
 80023c6:	f422 3200 	bic.w	r2, r2, #131072	; 0x20000
 80023ca:	430a      	orrs	r2, r1
 80023cc:	6062      	str	r2, [r4, #4]
 80023ce:	6a69      	ldr	r1, [r5, #36]	; 0x24
 80023d0:	6862      	ldr	r2, [r4, #4]
 80023d2:	430b      	orrs	r3, r1
 80023d4:	f422 1274 	bic.w	r2, r2, #3997696	; 0x3d0000
 80023d8:	4313      	orrs	r3, r2
 80023da:	2201      	movs	r2, #1
 80023dc:	6063      	str	r3, [r4, #4]
 80023de:	4b1a      	ldr	r3, [pc, #104]	; (8002448 <HAL_RCC_OscConfig+0x334>)
 80023e0:	661a      	str	r2, [r3, #96]	; 0x60
 80023e2:	f7ff fbef 	bl	8001bc4 <HAL_GetTick>
 80023e6:	4605      	mov	r5, r0
 80023e8:	6823      	ldr	r3, [r4, #0]
 80023ea:	019a      	lsls	r2, r3, #6
 80023ec:	f53f aea8 	bmi.w	8002140 <HAL_RCC_OscConfig+0x2c>
 80023f0:	f7ff fbe8 	bl	8001bc4 <HAL_GetTick>
 80023f4:	1b40      	subs	r0, r0, r5
 80023f6:	2802      	cmp	r0, #2
 80023f8:	d9f6      	bls.n	80023e8 <HAL_RCC_OscConfig+0x2d4>
 80023fa:	e6cc      	b.n	8002196 <HAL_RCC_OscConfig+0x82>
 80023fc:	f7ff fbe2 	bl	8001bc4 <HAL_GetTick>
 8002400:	1b80      	subs	r0, r0, r6
 8002402:	2802      	cmp	r0, #2
 8002404:	d9d6      	bls.n	80023b4 <HAL_RCC_OscConfig+0x2a0>
 8002406:	e6c6      	b.n	8002196 <HAL_RCC_OscConfig+0x82>
 8002408:	f7ff fbdc 	bl	8001bc4 <HAL_GetTick>
 800240c:	4605      	mov	r5, r0
 800240e:	6823      	ldr	r3, [r4, #0]
 8002410:	019b      	lsls	r3, r3, #6
 8002412:	f57f ae95 	bpl.w	8002140 <HAL_RCC_OscConfig+0x2c>
 8002416:	f7ff fbd5 	bl	8001bc4 <HAL_GetTick>
 800241a:	1b40      	subs	r0, r0, r5
 800241c:	2802      	cmp	r0, #2
 800241e:	d9f6      	bls.n	800240e <HAL_RCC_OscConfig+0x2fa>
 8002420:	e6b9      	b.n	8002196 <HAL_RCC_OscConfig+0x82>
 8002422:	2801      	cmp	r0, #1
 8002424:	f43f aeb8 	beq.w	8002198 <HAL_RCC_OscConfig+0x84>
 8002428:	6863      	ldr	r3, [r4, #4]
 800242a:	6a2a      	ldr	r2, [r5, #32]
 800242c:	f403 3180 	and.w	r1, r3, #65536	; 0x10000
 8002430:	4291      	cmp	r1, r2
 8002432:	f47f ae9b 	bne.w	800216c <HAL_RCC_OscConfig+0x58>
 8002436:	6a6a      	ldr	r2, [r5, #36]	; 0x24
 8002438:	f403 1370 	and.w	r3, r3, #3932160	; 0x3c0000
 800243c:	4293      	cmp	r3, r2
 800243e:	f43f ae7f 	beq.w	8002140 <HAL_RCC_OscConfig+0x2c>
 8002442:	e693      	b.n	800216c <HAL_RCC_OscConfig+0x58>
 8002444:	40021000 	.word	0x40021000
 8002448:	42420000 	.word	0x42420000

0800244c <HAL_RCC_GetSysClockFreq>:
 800244c:	4a0d      	ldr	r2, [pc, #52]	; (8002484 <HAL_RCC_GetSysClockFreq+0x38>)
 800244e:	6853      	ldr	r3, [r2, #4]
 8002450:	f003 010c 	and.w	r1, r3, #12
 8002454:	2908      	cmp	r1, #8
 8002456:	d112      	bne.n	800247e <HAL_RCC_GetSysClockFreq+0x32>
 8002458:	480b      	ldr	r0, [pc, #44]	; (8002488 <HAL_RCC_GetSysClockFreq+0x3c>)
 800245a:	f3c3 4183 	ubfx	r1, r3, #18, #4
 800245e:	03db      	lsls	r3, r3, #15
 8002460:	5c40      	ldrb	r0, [r0, r1]
 8002462:	d509      	bpl.n	8002478 <HAL_RCC_GetSysClockFreq+0x2c>
 8002464:	6853      	ldr	r3, [r2, #4]
 8002466:	4a09      	ldr	r2, [pc, #36]	; (800248c <HAL_RCC_GetSysClockFreq+0x40>)
 8002468:	f3c3 4340 	ubfx	r3, r3, #17, #1
 800246c:	4350      	muls	r0, r2
 800246e:	4a08      	ldr	r2, [pc, #32]	; (8002490 <HAL_RCC_GetSysClockFreq+0x44>)
 8002470:	5cd3      	ldrb	r3, [r2, r3]
 8002472:	fbb0 f0f3 	udiv	r0, r0, r3
 8002476:	4770      	bx	lr
 8002478:	4b06      	ldr	r3, [pc, #24]	; (8002494 <HAL_RCC_GetSysClockFreq+0x48>)
 800247a:	4358      	muls	r0, r3
 800247c:	4770      	bx	lr
 800247e:	4803      	ldr	r0, [pc, #12]	; (800248c <HAL_RCC_GetSysClockFreq+0x40>)
 8002480:	4770      	bx	lr
 8002482:	bf00      	nop
 8002484:	40021000 	.word	0x40021000
 8002488:	08004808 	.word	0x08004808
 800248c:	007a1200 	.word	0x007a1200
 8002490:	08004818 	.word	0x08004818
 8002494:	003d0900 	.word	0x003d0900

08002498 <HAL_RCC_ClockConfig>:
 8002498:	e92d 41f0 	stmdb	sp!, {r4, r5, r6, r7, r8, lr}
 800249c:	460d      	mov	r5, r1
 800249e:	4604      	mov	r4, r0
 80024a0:	b910      	cbnz	r0, 80024a8 <HAL_RCC_ClockConfig+0x10>
 80024a2:	2001      	movs	r0, #1
 80024a4:	e8bd 81f0 	ldmia.w	sp!, {r4, r5, r6, r7, r8, pc}
 80024a8:	4a44      	ldr	r2, [pc, #272]	; (80025bc <HAL_RCC_ClockConfig+0x124>)
 80024aa:	6813      	ldr	r3, [r2, #0]
 80024ac:	f003 0307 	and.w	r3, r3, #7
 80024b0:	428b      	cmp	r3, r1
 80024b2:	d328      	bcc.n	8002506 <HAL_RCC_ClockConfig+0x6e>
 80024b4:	6821      	ldr	r1, [r4, #0]
 80024b6:	078e      	lsls	r6, r1, #30
 80024b8:	d430      	bmi.n	800251c <HAL_RCC_ClockConfig+0x84>
 80024ba:	07ca      	lsls	r2, r1, #31
 80024bc:	d443      	bmi.n	8002546 <HAL_RCC_ClockConfig+0xae>
 80024be:	4a3f      	ldr	r2, [pc, #252]	; (80025bc <HAL_RCC_ClockConfig+0x124>)
 80024c0:	6813      	ldr	r3, [r2, #0]
 80024c2:	f003 0307 	and.w	r3, r3, #7
 80024c6:	42ab      	cmp	r3, r5
 80024c8:	d865      	bhi.n	8002596 <HAL_RCC_ClockConfig+0xfe>
 80024ca:	6822      	ldr	r2, [r4, #0]
 80024cc:	4d3c      	ldr	r5, [pc, #240]	; (80025c0 <HAL_RCC_ClockConfig+0x128>)
 80024ce:	f012 0f04 	tst.w	r2, #4
 80024d2:	d16c      	bne.n	80025ae <HAL_RCC_ClockConfig+0x116>
 80024d4:	0713      	lsls	r3, r2, #28
 80024d6:	d506      	bpl.n	80024e6 <HAL_RCC_ClockConfig+0x4e>
 80024d8:	686b      	ldr	r3, [r5, #4]
 80024da:	6922      	ldr	r2, [r4, #16]
 80024dc:	f423 5360 	bic.w	r3, r3, #14336	; 0x3800
 80024e0:	ea43 03c2 	orr.w	r3, r3, r2, lsl #3
 80024e4:	606b      	str	r3, [r5, #4]
 80024e6:	f7ff ffb1 	bl	800244c <HAL_RCC_GetSysClockFreq>
 80024ea:	686b      	ldr	r3, [r5, #4]
 80024ec:	4a35      	ldr	r2, [pc, #212]	; (80025c4 <HAL_RCC_ClockConfig+0x12c>)
 80024ee:	f3c3 1303 	ubfx	r3, r3, #4, #4
 80024f2:	5cd3      	ldrb	r3, [r2, r3]
 80024f4:	40d8      	lsrs	r0, r3
 80024f6:	4b34      	ldr	r3, [pc, #208]	; (80025c8 <HAL_RCC_ClockConfig+0x130>)
 80024f8:	6018      	str	r0, [r3, #0]
 80024fa:	4b34      	ldr	r3, [pc, #208]	; (80025cc <HAL_RCC_ClockConfig+0x134>)
 80024fc:	6818      	ldr	r0, [r3, #0]
 80024fe:	f7ff fb1f 	bl	8001b40 <HAL_InitTick>
 8002502:	2000      	movs	r0, #0
 8002504:	e7ce      	b.n	80024a4 <HAL_RCC_ClockConfig+0xc>
 8002506:	6813      	ldr	r3, [r2, #0]
 8002508:	f023 0307 	bic.w	r3, r3, #7
 800250c:	430b      	orrs	r3, r1
 800250e:	6013      	str	r3, [r2, #0]
 8002510:	6813      	ldr	r3, [r2, #0]
 8002512:	f003 0307 	and.w	r3, r3, #7
 8002516:	428b      	cmp	r3, r1
 8002518:	d1c3      	bne.n	80024a2 <HAL_RCC_ClockConfig+0xa>
 800251a:	e7cb      	b.n	80024b4 <HAL_RCC_ClockConfig+0x1c>
 800251c:	4b28      	ldr	r3, [pc, #160]	; (80025c0 <HAL_RCC_ClockConfig+0x128>)
 800251e:	f011 0f04 	tst.w	r1, #4
 8002522:	bf1e      	ittt	ne
 8002524:	685a      	ldrne	r2, [r3, #4]
 8002526:	f442 62e0 	orrne.w	r2, r2, #1792	; 0x700
 800252a:	605a      	strne	r2, [r3, #4]
 800252c:	0708      	lsls	r0, r1, #28
 800252e:	bf42      	ittt	mi
 8002530:	685a      	ldrmi	r2, [r3, #4]
 8002532:	f442 5260 	orrmi.w	r2, r2, #14336	; 0x3800
 8002536:	605a      	strmi	r2, [r3, #4]
 8002538:	685a      	ldr	r2, [r3, #4]
 800253a:	68a0      	ldr	r0, [r4, #8]
 800253c:	f022 02f0 	bic.w	r2, r2, #240	; 0xf0
 8002540:	4302      	orrs	r2, r0
 8002542:	605a      	str	r2, [r3, #4]
 8002544:	e7b9      	b.n	80024ba <HAL_RCC_ClockConfig+0x22>
 8002546:	6862      	ldr	r2, [r4, #4]
 8002548:	4e1d      	ldr	r6, [pc, #116]	; (80025c0 <HAL_RCC_ClockConfig+0x128>)
 800254a:	2a01      	cmp	r2, #1
 800254c:	6833      	ldr	r3, [r6, #0]
 800254e:	d11a      	bne.n	8002586 <HAL_RCC_ClockConfig+0xee>
 8002550:	f413 3f00 	tst.w	r3, #131072	; 0x20000
 8002554:	d0a5      	beq.n	80024a2 <HAL_RCC_ClockConfig+0xa>
 8002556:	6873      	ldr	r3, [r6, #4]
 8002558:	f241 3888 	movw	r8, #5000	; 0x1388
 800255c:	f023 0303 	bic.w	r3, r3, #3
 8002560:	4313      	orrs	r3, r2
 8002562:	6073      	str	r3, [r6, #4]
 8002564:	f7ff fb2e 	bl	8001bc4 <HAL_GetTick>
 8002568:	4607      	mov	r7, r0
 800256a:	6873      	ldr	r3, [r6, #4]
 800256c:	6862      	ldr	r2, [r4, #4]
 800256e:	f003 030c 	and.w	r3, r3, #12
 8002572:	ebb3 0f82 	cmp.w	r3, r2, lsl #2
 8002576:	d0a2      	beq.n	80024be <HAL_RCC_ClockConfig+0x26>
 8002578:	f7ff fb24 	bl	8001bc4 <HAL_GetTick>
 800257c:	1bc0      	subs	r0, r0, r7
 800257e:	4540      	cmp	r0, r8
 8002580:	d9f3      	bls.n	800256a <HAL_RCC_ClockConfig+0xd2>
 8002582:	2003      	movs	r0, #3
 8002584:	e78e      	b.n	80024a4 <HAL_RCC_ClockConfig+0xc>
 8002586:	2a02      	cmp	r2, #2
 8002588:	d102      	bne.n	8002590 <HAL_RCC_ClockConfig+0xf8>
 800258a:	f013 7f00 	tst.w	r3, #33554432	; 0x2000000
 800258e:	e7e1      	b.n	8002554 <HAL_RCC_ClockConfig+0xbc>
 8002590:	f013 0f02 	tst.w	r3, #2
 8002594:	e7de      	b.n	8002554 <HAL_RCC_ClockConfig+0xbc>
 8002596:	6813      	ldr	r3, [r2, #0]
 8002598:	f023 0307 	bic.w	r3, r3, #7
 800259c:	432b      	orrs	r3, r5
 800259e:	6013      	str	r3, [r2, #0]
 80025a0:	6813      	ldr	r3, [r2, #0]
 80025a2:	f003 0307 	and.w	r3, r3, #7
 80025a6:	42ab      	cmp	r3, r5
 80025a8:	f47f af7b 	bne.w	80024a2 <HAL_RCC_ClockConfig+0xa>
 80025ac:	e78d      	b.n	80024ca <HAL_RCC_ClockConfig+0x32>
 80025ae:	686b      	ldr	r3, [r5, #4]
 80025b0:	68e1      	ldr	r1, [r4, #12]
 80025b2:	f423 63e0 	bic.w	r3, r3, #1792	; 0x700
 80025b6:	430b      	orrs	r3, r1
 80025b8:	606b      	str	r3, [r5, #4]
 80025ba:	e78b      	b.n	80024d4 <HAL_RCC_ClockConfig+0x3c>
 80025bc:	40022000 	.word	0x40022000
 80025c0:	40021000 	.word	0x40021000
 80025c4:	080047f8 	.word	0x080047f8
 80025c8:	20000000 	.word	0x20000000
 80025cc:	20000008 	.word	0x20000008

080025d0 <TIM_OC1_SetConfig>:
 80025d0:	6a03      	ldr	r3, [r0, #32]
 80025d2:	6a02      	ldr	r2, [r0, #32]
 80025d4:	b570      	push	{r4, r5, r6, lr}
 80025d6:	f022 0201 	bic.w	r2, r2, #1
 80025da:	6202      	str	r2, [r0, #32]
 80025dc:	6844      	ldr	r4, [r0, #4]
 80025de:	6982      	ldr	r2, [r0, #24]
 80025e0:	680d      	ldr	r5, [r1, #0]
 80025e2:	f022 0273 	bic.w	r2, r2, #115	; 0x73
 80025e6:	432a      	orrs	r2, r5
 80025e8:	688d      	ldr	r5, [r1, #8]
 80025ea:	f023 0302 	bic.w	r3, r3, #2
 80025ee:	432b      	orrs	r3, r5
 80025f0:	4d0a      	ldr	r5, [pc, #40]	; (800261c <TIM_OC1_SetConfig+0x4c>)
 80025f2:	42a8      	cmp	r0, r5
 80025f4:	d10b      	bne.n	800260e <TIM_OC1_SetConfig+0x3e>
 80025f6:	68cd      	ldr	r5, [r1, #12]
 80025f8:	f023 0308 	bic.w	r3, r3, #8
 80025fc:	432b      	orrs	r3, r5
 80025fe:	f424 7440 	bic.w	r4, r4, #768	; 0x300
 8002602:	e9d1 5605 	ldrd	r5, r6, [r1, #20]
 8002606:	4335      	orrs	r5, r6
 8002608:	f023 0304 	bic.w	r3, r3, #4
 800260c:	432c      	orrs	r4, r5
 800260e:	6044      	str	r4, [r0, #4]
 8002610:	6182      	str	r2, [r0, #24]
 8002612:	684a      	ldr	r2, [r1, #4]
 8002614:	6342      	str	r2, [r0, #52]	; 0x34
 8002616:	6203      	str	r3, [r0, #32]
 8002618:	bd70      	pop	{r4, r5, r6, pc}
 800261a:	bf00      	nop
 800261c:	40012c00 	.word	0x40012c00

08002620 <TIM_OC3_SetConfig>:
 8002620:	6a03      	ldr	r3, [r0, #32]
 8002622:	6a02      	ldr	r2, [r0, #32]
 8002624:	b570      	push	{r4, r5, r6, lr}
 8002626:	f422 7280 	bic.w	r2, r2, #256	; 0x100
 800262a:	6202      	str	r2, [r0, #32]
 800262c:	6844      	ldr	r4, [r0, #4]
 800262e:	69c2      	ldr	r2, [r0, #28]
 8002630:	680d      	ldr	r5, [r1, #0]
 8002632:	f022 0273 	bic.w	r2, r2, #115	; 0x73
 8002636:	432a      	orrs	r2, r5
 8002638:	688d      	ldr	r5, [r1, #8]
 800263a:	f423 7300 	bic.w	r3, r3, #512	; 0x200
 800263e:	ea43 2305 	orr.w	r3, r3, r5, lsl #8
 8002642:	4d0b      	ldr	r5, [pc, #44]	; (8002670 <TIM_OC3_SetConfig+0x50>)
 8002644:	42a8      	cmp	r0, r5
 8002646:	d10d      	bne.n	8002664 <TIM_OC3_SetConfig+0x44>
 8002648:	68cd      	ldr	r5, [r1, #12]
 800264a:	f423 6300 	bic.w	r3, r3, #2048	; 0x800
 800264e:	ea43 2305 	orr.w	r3, r3, r5, lsl #8
 8002652:	f424 5440 	bic.w	r4, r4, #12288	; 0x3000
 8002656:	e9d1 5605 	ldrd	r5, r6, [r1, #20]
 800265a:	4335      	orrs	r5, r6
 800265c:	f423 6380 	bic.w	r3, r3, #1024	; 0x400
 8002660:	ea44 1405 	orr.w	r4, r4, r5, lsl #4
 8002664:	6044      	str	r4, [r0, #4]
 8002666:	61c2      	str	r2, [r0, #28]
 8002668:	684a      	ldr	r2, [r1, #4]
 800266a:	63c2      	str	r2, [r0, #60]	; 0x3c
 800266c:	6203      	str	r3, [r0, #32]
 800266e:	bd70      	pop	{r4, r5, r6, pc}
 8002670:	40012c00 	.word	0x40012c00

08002674 <TIM_OC4_SetConfig>:
 8002674:	6a03      	ldr	r3, [r0, #32]
 8002676:	6a02      	ldr	r2, [r0, #32]
 8002678:	b530      	push	{r4, r5, lr}
 800267a:	f422 5280 	bic.w	r2, r2, #4096	; 0x1000
 800267e:	6202      	str	r2, [r0, #32]
 8002680:	6844      	ldr	r4, [r0, #4]
 8002682:	69c2      	ldr	r2, [r0, #28]
 8002684:	680d      	ldr	r5, [r1, #0]
 8002686:	f422 42e6 	bic.w	r2, r2, #29440	; 0x7300
 800268a:	ea42 2205 	orr.w	r2, r2, r5, lsl #8
 800268e:	688d      	ldr	r5, [r1, #8]
 8002690:	f423 5300 	bic.w	r3, r3, #8192	; 0x2000
 8002694:	ea43 3305 	orr.w	r3, r3, r5, lsl #12
 8002698:	4d06      	ldr	r5, [pc, #24]	; (80026b4 <TIM_OC4_SetConfig+0x40>)
 800269a:	42a8      	cmp	r0, r5
 800269c:	bf02      	ittt	eq
 800269e:	694d      	ldreq	r5, [r1, #20]
 80026a0:	f424 4480 	biceq.w	r4, r4, #16384	; 0x4000
 80026a4:	ea44 1485 	orreq.w	r4, r4, r5, lsl #6
 80026a8:	6044      	str	r4, [r0, #4]
 80026aa:	61c2      	str	r2, [r0, #28]
 80026ac:	684a      	ldr	r2, [r1, #4]
 80026ae:	6402      	str	r2, [r0, #64]	; 0x40
 80026b0:	6203      	str	r3, [r0, #32]
 80026b2:	bd30      	pop	{r4, r5, pc}
 80026b4:	40012c00 	.word	0x40012c00

080026b8 <HAL_TIM_OC_MspInit>:
 80026b8:	4770      	bx	lr

080026ba <HAL_TIM_PWM_MspInit>:
 80026ba:	4770      	bx	lr

080026bc <HAL_TIM_IC_MspInit>:
 80026bc:	4770      	bx	lr

080026be <HAL_TIM_ConfigTI1Input>:
 80026be:	6802      	ldr	r2, [r0, #0]
 80026c0:	2000      	movs	r0, #0
 80026c2:	6853      	ldr	r3, [r2, #4]
 80026c4:	f023 0380 	bic.w	r3, r3, #128	; 0x80
 80026c8:	430b      	orrs	r3, r1
 80026ca:	6053      	str	r3, [r2, #4]
 80026cc:	4770      	bx	lr

080026ce <HAL_TIM_PWM_PulseFinishedCallback>:
 80026ce:	4770      	bx	lr

080026d0 <TIM_DMADelayPulseCplt>:
 80026d0:	b510      	push	{r4, lr}
 80026d2:	6a44      	ldr	r4, [r0, #36]	; 0x24
 80026d4:	6a62      	ldr	r2, [r4, #36]	; 0x24
 80026d6:	4282      	cmp	r2, r0
 80026d8:	d10b      	bne.n	80026f2 <TIM_DMADelayPulseCplt+0x22>
 80026da:	2301      	movs	r3, #1
 80026dc:	7723      	strb	r3, [r4, #28]
 80026de:	6992      	ldr	r2, [r2, #24]
 80026e0:	b90a      	cbnz	r2, 80026e6 <TIM_DMADelayPulseCplt+0x16>
 80026e2:	f884 303e 	strb.w	r3, [r4, #62]	; 0x3e
 80026e6:	4620      	mov	r0, r4
 80026e8:	f7ff fff1 	bl	80026ce <HAL_TIM_PWM_PulseFinishedCallback>
 80026ec:	2300      	movs	r3, #0
 80026ee:	7723      	strb	r3, [r4, #28]
 80026f0:	bd10      	pop	{r4, pc}
 80026f2:	6aa3      	ldr	r3, [r4, #40]	; 0x28
 80026f4:	4283      	cmp	r3, r0
 80026f6:	d108      	bne.n	800270a <TIM_DMADelayPulseCplt+0x3a>
 80026f8:	2202      	movs	r2, #2
 80026fa:	7722      	strb	r2, [r4, #28]
 80026fc:	699b      	ldr	r3, [r3, #24]
 80026fe:	2b00      	cmp	r3, #0
 8002700:	d1f1      	bne.n	80026e6 <TIM_DMADelayPulseCplt+0x16>
 8002702:	2301      	movs	r3, #1
 8002704:	f884 303f 	strb.w	r3, [r4, #63]	; 0x3f
 8002708:	e7ed      	b.n	80026e6 <TIM_DMADelayPulseCplt+0x16>
 800270a:	6ae3      	ldr	r3, [r4, #44]	; 0x2c
 800270c:	4283      	cmp	r3, r0
 800270e:	d108      	bne.n	8002722 <TIM_DMADelayPulseCplt+0x52>
 8002710:	2204      	movs	r2, #4
 8002712:	7722      	strb	r2, [r4, #28]
 8002714:	699b      	ldr	r3, [r3, #24]
 8002716:	2b00      	cmp	r3, #0
 8002718:	d1e5      	bne.n	80026e6 <TIM_DMADelayPulseCplt+0x16>
 800271a:	2301      	movs	r3, #1
 800271c:	f884 3040 	strb.w	r3, [r4, #64]	; 0x40
 8002720:	e7e1      	b.n	80026e6 <TIM_DMADelayPulseCplt+0x16>
 8002722:	6b23      	ldr	r3, [r4, #48]	; 0x30
 8002724:	4283      	cmp	r3, r0
 8002726:	d1de      	bne.n	80026e6 <TIM_DMADelayPulseCplt+0x16>
 8002728:	2208      	movs	r2, #8
 800272a:	7722      	strb	r2, [r4, #28]
 800272c:	699b      	ldr	r3, [r3, #24]
 800272e:	2b00      	cmp	r3, #0
 8002730:	d1d9      	bne.n	80026e6 <TIM_DMADelayPulseCplt+0x16>
 8002732:	2301      	movs	r3, #1
 8002734:	f884 3041 	strb.w	r3, [r4, #65]	; 0x41
 8002738:	e7d5      	b.n	80026e6 <TIM_DMADelayPulseCplt+0x16>

0800273a <HAL_TIM_PWM_PulseFinishedHalfCpltCallback>:
 800273a:	4770      	bx	lr

0800273c <TIM_DMADelayPulseHalfCplt>:
 800273c:	b510      	push	{r4, lr}
 800273e:	6a44      	ldr	r4, [r0, #36]	; 0x24
 8002740:	6a63      	ldr	r3, [r4, #36]	; 0x24
 8002742:	4283      	cmp	r3, r0
 8002744:	d107      	bne.n	8002756 <TIM_DMADelayPulseHalfCplt+0x1a>
 8002746:	2301      	movs	r3, #1
 8002748:	7723      	strb	r3, [r4, #28]
 800274a:	4620      	mov	r0, r4
 800274c:	f7ff fff5 	bl	800273a <HAL_TIM_PWM_PulseFinishedHalfCpltCallback>
 8002750:	2300      	movs	r3, #0
 8002752:	7723      	strb	r3, [r4, #28]
 8002754:	bd10      	pop	{r4, pc}
 8002756:	6aa3      	ldr	r3, [r4, #40]	; 0x28
 8002758:	4283      	cmp	r3, r0
 800275a:	d101      	bne.n	8002760 <TIM_DMADelayPulseHalfCplt+0x24>
 800275c:	2302      	movs	r3, #2
 800275e:	e7f3      	b.n	8002748 <TIM_DMADelayPulseHalfCplt+0xc>
 8002760:	6ae3      	ldr	r3, [r4, #44]	; 0x2c
 8002762:	4283      	cmp	r3, r0
 8002764:	d101      	bne.n	800276a <TIM_DMADelayPulseHalfCplt+0x2e>
 8002766:	2304      	movs	r3, #4
 8002768:	e7ee      	b.n	8002748 <TIM_DMADelayPulseHalfCplt+0xc>
 800276a:	6b23      	ldr	r3, [r4, #48]	; 0x30
 800276c:	4283      	cmp	r3, r0
 800276e:	d1ec      	bne.n	800274a <TIM_DMADelayPulseHalfCplt+0xe>
 8002770:	2308      	movs	r3, #8
 8002772:	e7e9      	b.n	8002748 <TIM_DMADelayPulseHalfCplt+0xc>

08002774 <HAL_TIM_ErrorCallback>:
 8002774:	4770      	bx	lr

08002776 <TIM_DMAError>:
 8002776:	b510      	push	{r4, lr}
 8002778:	6a44      	ldr	r4, [r0, #36]	; 0x24
 800277a:	6a63      	ldr	r3, [r4, #36]	; 0x24
 800277c:	4283      	cmp	r3, r0
 800277e:	d109      	bne.n	8002794 <TIM_DMAError+0x1e>
 8002780:	2301      	movs	r3, #1
 8002782:	7723      	strb	r3, [r4, #28]
 8002784:	f884 303e 	strb.w	r3, [r4, #62]	; 0x3e
 8002788:	4620      	mov	r0, r4
 800278a:	f7ff fff3 	bl	8002774 <HAL_TIM_ErrorCallback>
 800278e:	2300      	movs	r3, #0
 8002790:	7723      	strb	r3, [r4, #28]
 8002792:	bd10      	pop	{r4, pc}
 8002794:	6aa3      	ldr	r3, [r4, #40]	; 0x28
 8002796:	4283      	cmp	r3, r0
 8002798:	d105      	bne.n	80027a6 <TIM_DMAError+0x30>
 800279a:	2302      	movs	r3, #2
 800279c:	7723      	strb	r3, [r4, #28]
 800279e:	2301      	movs	r3, #1
 80027a0:	f884 303f 	strb.w	r3, [r4, #63]	; 0x3f
 80027a4:	e7f0      	b.n	8002788 <TIM_DMAError+0x12>
 80027a6:	6ae3      	ldr	r3, [r4, #44]	; 0x2c
 80027a8:	4283      	cmp	r3, r0
 80027aa:	f04f 0301 	mov.w	r3, #1
 80027ae:	d104      	bne.n	80027ba <TIM_DMAError+0x44>
 80027b0:	2204      	movs	r2, #4
 80027b2:	f884 3040 	strb.w	r3, [r4, #64]	; 0x40
 80027b6:	7722      	strb	r2, [r4, #28]
 80027b8:	e7e6      	b.n	8002788 <TIM_DMAError+0x12>
 80027ba:	6b22      	ldr	r2, [r4, #48]	; 0x30
 80027bc:	4282      	cmp	r2, r0
 80027be:	bf03      	ittte	eq
 80027c0:	2208      	moveq	r2, #8
 80027c2:	f884 3041 	strbeq.w	r3, [r4, #65]	; 0x41
 80027c6:	7722      	strbeq	r2, [r4, #28]
 80027c8:	f884 303d 	strbne.w	r3, [r4, #61]	; 0x3d
 80027cc:	e7dc      	b.n	8002788 <TIM_DMAError+0x12>
	...

080027d0 <TIM_Base_SetConfig>:
 80027d0:	4a1a      	ldr	r2, [pc, #104]	; (800283c <TIM_Base_SetConfig+0x6c>)
 80027d2:	6803      	ldr	r3, [r0, #0]
 80027d4:	4290      	cmp	r0, r2
 80027d6:	d00a      	beq.n	80027ee <TIM_Base_SetConfig+0x1e>
 80027d8:	f1b0 4f80 	cmp.w	r0, #1073741824	; 0x40000000
 80027dc:	d007      	beq.n	80027ee <TIM_Base_SetConfig+0x1e>
 80027de:	f5a2 3294 	sub.w	r2, r2, #75776	; 0x12800
 80027e2:	4290      	cmp	r0, r2
 80027e4:	d003      	beq.n	80027ee <TIM_Base_SetConfig+0x1e>
 80027e6:	f502 6280 	add.w	r2, r2, #1024	; 0x400
 80027ea:	4290      	cmp	r0, r2
 80027ec:	d115      	bne.n	800281a <TIM_Base_SetConfig+0x4a>
 80027ee:	684a      	ldr	r2, [r1, #4]
 80027f0:	f023 0370 	bic.w	r3, r3, #112	; 0x70
 80027f4:	4313      	orrs	r3, r2
 80027f6:	4a11      	ldr	r2, [pc, #68]	; (800283c <TIM_Base_SetConfig+0x6c>)
 80027f8:	4290      	cmp	r0, r2
 80027fa:	d00a      	beq.n	8002812 <TIM_Base_SetConfig+0x42>
 80027fc:	f1b0 4f80 	cmp.w	r0, #1073741824	; 0x40000000
 8002800:	d007      	beq.n	8002812 <TIM_Base_SetConfig+0x42>
 8002802:	f5a2 3294 	sub.w	r2, r2, #75776	; 0x12800
 8002806:	4290      	cmp	r0, r2
 8002808:	d003      	beq.n	8002812 <TIM_Base_SetConfig+0x42>
 800280a:	f502 6280 	add.w	r2, r2, #1024	; 0x400
 800280e:	4290      	cmp	r0, r2
 8002810:	d103      	bne.n	800281a <TIM_Base_SetConfig+0x4a>
 8002812:	68ca      	ldr	r2, [r1, #12]
 8002814:	f423 7340 	bic.w	r3, r3, #768	; 0x300
 8002818:	4313      	orrs	r3, r2
 800281a:	694a      	ldr	r2, [r1, #20]
 800281c:	f023 0380 	bic.w	r3, r3, #128	; 0x80
 8002820:	4313      	orrs	r3, r2
 8002822:	6003      	str	r3, [r0, #0]
 8002824:	688b      	ldr	r3, [r1, #8]
 8002826:	62c3      	str	r3, [r0, #44]	; 0x2c
 8002828:	680b      	ldr	r3, [r1, #0]
 800282a:	6283      	str	r3, [r0, #40]	; 0x28
 800282c:	4b03      	ldr	r3, [pc, #12]	; (800283c <TIM_Base_SetConfig+0x6c>)
 800282e:	4298      	cmp	r0, r3
 8002830:	bf04      	itt	eq
 8002832:	690b      	ldreq	r3, [r1, #16]
 8002834:	6303      	streq	r3, [r0, #48]	; 0x30
 8002836:	2301      	movs	r3, #1
 8002838:	6143      	str	r3, [r0, #20]
 800283a:	4770      	bx	lr
 800283c:	40012c00 	.word	0x40012c00

08002840 <HAL_TIM_Base_Init>:
 8002840:	b510      	push	{r4, lr}
 8002842:	4604      	mov	r4, r0
 8002844:	b330      	cbz	r0, 8002894 <HAL_TIM_Base_Init+0x54>
 8002846:	f890 303d 	ldrb.w	r3, [r0, #61]	; 0x3d
 800284a:	f003 02ff 	and.w	r2, r3, #255	; 0xff
 800284e:	b91b      	cbnz	r3, 8002858 <HAL_TIM_Base_Init+0x18>
 8002850:	f880 203c 	strb.w	r2, [r0, #60]	; 0x3c
 8002854:	f7ff f828 	bl	80018a8 <HAL_TIM_Base_MspInit>
 8002858:	2302      	movs	r3, #2
 800285a:	6820      	ldr	r0, [r4, #0]
 800285c:	f884 303d 	strb.w	r3, [r4, #61]	; 0x3d
 8002860:	1d21      	adds	r1, r4, #4
 8002862:	f7ff ffb5 	bl	80027d0 <TIM_Base_SetConfig>
 8002866:	2301      	movs	r3, #1
 8002868:	2000      	movs	r0, #0
 800286a:	f884 3046 	strb.w	r3, [r4, #70]	; 0x46
 800286e:	f884 303e 	strb.w	r3, [r4, #62]	; 0x3e
 8002872:	f884 303f 	strb.w	r3, [r4, #63]	; 0x3f
 8002876:	f884 3040 	strb.w	r3, [r4, #64]	; 0x40
 800287a:	f884 3041 	strb.w	r3, [r4, #65]	; 0x41
 800287e:	f884 3042 	strb.w	r3, [r4, #66]	; 0x42
 8002882:	f884 3043 	strb.w	r3, [r4, #67]	; 0x43
 8002886:	f884 3044 	strb.w	r3, [r4, #68]	; 0x44
 800288a:	f884 3045 	strb.w	r3, [r4, #69]	; 0x45
 800288e:	f884 303d 	strb.w	r3, [r4, #61]	; 0x3d
 8002892:	bd10      	pop	{r4, pc}
 8002894:	2001      	movs	r0, #1
 8002896:	e7fc      	b.n	8002892 <HAL_TIM_Base_Init+0x52>

08002898 <HAL_TIM_OC_Init>:
 8002898:	b510      	push	{r4, lr}
 800289a:	4604      	mov	r4, r0
 800289c:	b330      	cbz	r0, 80028ec <HAL_TIM_OC_Init+0x54>
 800289e:	f890 303d 	ldrb.w	r3, [r0, #61]	; 0x3d
 80028a2:	f003 02ff 	and.w	r2, r3, #255	; 0xff
 80028a6:	b91b      	cbnz	r3, 80028b0 <HAL_TIM_OC_Init+0x18>
 80028a8:	f880 203c 	strb.w	r2, [r0, #60]	; 0x3c
 80028ac:	f7ff ff04 	bl	80026b8 <HAL_TIM_OC_MspInit>
 80028b0:	2302      	movs	r3, #2
 80028b2:	6820      	ldr	r0, [r4, #0]
 80028b4:	f884 303d 	strb.w	r3, [r4, #61]	; 0x3d
 80028b8:	1d21      	adds	r1, r4, #4
 80028ba:	f7ff ff89 	bl	80027d0 <TIM_Base_SetConfig>
 80028be:	2301      	movs	r3, #1
 80028c0:	2000      	movs	r0, #0
 80028c2:	f884 3046 	strb.w	r3, [r4, #70]	; 0x46
 80028c6:	f884 303e 	strb.w	r3, [r4, #62]	; 0x3e
 80028ca:	f884 303f 	strb.w	r3, [r4, #63]	; 0x3f
 80028ce:	f884 3040 	strb.w	r3, [r4, #64]	; 0x40
 80028d2:	f884 3041 	strb.w	r3, [r4, #65]	; 0x41
 80028d6:	f884 3042 	strb.w	r3, [r4, #66]	; 0x42
 80028da:	f884 3043 	strb.w	r3, [r4, #67]	; 0x43
 80028de:	f884 3044 	strb.w	r3, [r4, #68]	; 0x44
 80028e2:	f884 3045 	strb.w	r3, [r4, #69]	; 0x45
 80028e6:	f884 303d 	strb.w	r3, [r4, #61]	; 0x3d
 80028ea:	bd10      	pop	{r4, pc}
 80028ec:	2001      	movs	r0, #1
 80028ee:	e7fc      	b.n	80028ea <HAL_TIM_OC_Init+0x52>

080028f0 <HAL_TIM_PWM_Init>:
 80028f0:	b510      	push	{r4, lr}
 80028f2:	4604      	mov	r4, r0
 80028f4:	b330      	cbz	r0, 8002944 <HAL_TIM_PWM_Init+0x54>
 80028f6:	f890 303d 	ldrb.w	r3, [r0, #61]	; 0x3d
 80028fa:	f003 02ff 	and.w	r2, r3, #255	; 0xff
 80028fe:	b91b      	cbnz	r3, 8002908 <HAL_TIM_PWM_Init+0x18>
 8002900:	f880 203c 	strb.w	r2, [r0, #60]	; 0x3c
 8002904:	f7ff fed9 	bl	80026ba <HAL_TIM_PWM_MspInit>
 8002908:	2302      	movs	r3, #2
 800290a:	6820      	ldr	r0, [r4, #0]
 800290c:	f884 303d 	strb.w	r3, [r4, #61]	; 0x3d
 8002910:	1d21      	adds	r1, r4, #4
 8002912:	f7ff ff5d 	bl	80027d0 <TIM_Base_SetConfig>
 8002916:	2301      	movs	r3, #1
 8002918:	2000      	movs	r0, #0
 800291a:	f884 3046 	strb.w	r3, [r4, #70]	; 0x46
 800291e:	f884 303e 	strb.w	r3, [r4, #62]	; 0x3e
 8002922:	f884 303f 	strb.w	r3, [r4, #63]	; 0x3f
 8002926:	f884 3040 	strb.w	r3, [r4, #64]	; 0x40
 800292a:	f884 3041 	strb.w	r3, [r4, #65]	; 0x41
 800292e:	f884 3042 	strb.w	r3, [r4, #66]	; 0x42
 8002932:	f884 3043 	strb.w	r3, [r4, #67]	; 0x43
 8002936:	f884 3044 	strb.w	r3, [r4, #68]	; 0x44
 800293a:	f884 3045 	strb.w	r3, [r4, #69]	; 0x45
 800293e:	f884 303d 	strb.w	r3, [r4, #61]	; 0x3d
 8002942:	bd10      	pop	{r4, pc}
 8002944:	2001      	movs	r0, #1
 8002946:	e7fc      	b.n	8002942 <HAL_TIM_PWM_Init+0x52>

08002948 <HAL_TIM_IC_Init>:
 8002948:	b510      	push	{r4, lr}
 800294a:	4604      	mov	r4, r0
 800294c:	b330      	cbz	r0, 800299c <HAL_TIM_IC_Init+0x54>
 800294e:	f890 303d 	ldrb.w	r3, [r0, #61]	; 0x3d
 8002952:	f003 02ff 	and.w	r2, r3, #255	; 0xff
 8002956:	b91b      	cbnz	r3, 8002960 <HAL_TIM_IC_Init+0x18>
 8002958:	f880 203c 	strb.w	r2, [r0, #60]	; 0x3c
 800295c:	f7ff feae 	bl	80026bc <HAL_TIM_IC_MspInit>
 8002960:	2302      	movs	r3, #2
 8002962:	6820      	ldr	r0, [r4, #0]
 8002964:	f884 303d 	strb.w	r3, [r4, #61]	; 0x3d
 8002968:	1d21      	adds	r1, r4, #4
 800296a:	f7ff ff31 	bl	80027d0 <TIM_Base_SetConfig>
 800296e:	2301      	movs	r3, #1
 8002970:	2000      	movs	r0, #0
 8002972:	f884 3046 	strb.w	r3, [r4, #70]	; 0x46
 8002976:	f884 303e 	strb.w	r3, [r4, #62]	; 0x3e
 800297a:	f884 303f 	strb.w	r3, [r4, #63]	; 0x3f
 800297e:	f884 3040 	strb.w	r3, [r4, #64]	; 0x40
 8002982:	f884 3041 	strb.w	r3, [r4, #65]	; 0x41
 8002986:	f884 3042 	strb.w	r3, [r4, #66]	; 0x42
 800298a:	f884 3043 	strb.w	r3, [r4, #67]	; 0x43
 800298e:	f884 3044 	strb.w	r3, [r4, #68]	; 0x44
 8002992:	f884 3045 	strb.w	r3, [r4, #69]	; 0x45
 8002996:	f884 303d 	strb.w	r3, [r4, #61]	; 0x3d
 800299a:	bd10      	pop	{r4, pc}
 800299c:	2001      	movs	r0, #1
 800299e:	e7fc      	b.n	800299a <HAL_TIM_IC_Init+0x52>

080029a0 <TIM_OC2_SetConfig>:
 80029a0:	6a03      	ldr	r3, [r0, #32]
 80029a2:	6a02      	ldr	r2, [r0, #32]
 80029a4:	b570      	push	{r4, r5, r6, lr}
 80029a6:	f022 0210 	bic.w	r2, r2, #16
 80029aa:	6202      	str	r2, [r0, #32]
 80029ac:	6844      	ldr	r4, [r0, #4]
 80029ae:	6982      	ldr	r2, [r0, #24]
 80029b0:	680d      	ldr	r5, [r1, #0]
 80029b2:	f422 42e6 	bic.w	r2, r2, #29440	; 0x7300
 80029b6:	ea42 2205 	orr.w	r2, r2, r5, lsl #8
 80029ba:	688d      	ldr	r5, [r1, #8]
 80029bc:	f023 0320 	bic.w	r3, r3, #32
 80029c0:	ea43 1305 	orr.w	r3, r3, r5, lsl #4
 80029c4:	4d0b      	ldr	r5, [pc, #44]	; (80029f4 <TIM_OC2_SetConfig+0x54>)
 80029c6:	42a8      	cmp	r0, r5
 80029c8:	d10d      	bne.n	80029e6 <TIM_OC2_SetConfig+0x46>
 80029ca:	68cd      	ldr	r5, [r1, #12]
 80029cc:	f023 0380 	bic.w	r3, r3, #128	; 0x80
 80029d0:	ea43 1305 	orr.w	r3, r3, r5, lsl #4
 80029d4:	f424 6440 	bic.w	r4, r4, #3072	; 0xc00
 80029d8:	e9d1 5605 	ldrd	r5, r6, [r1, #20]
 80029dc:	4335      	orrs	r5, r6
 80029de:	f023 0340 	bic.w	r3, r3, #64	; 0x40
 80029e2:	ea44 0485 	orr.w	r4, r4, r5, lsl #2
 80029e6:	6044      	str	r4, [r0, #4]
 80029e8:	6182      	str	r2, [r0, #24]
 80029ea:	684a      	ldr	r2, [r1, #4]
 80029ec:	6382      	str	r2, [r0, #56]	; 0x38
 80029ee:	6203      	str	r3, [r0, #32]
 80029f0:	bd70      	pop	{r4, r5, r6, pc}
 80029f2:	bf00      	nop
 80029f4:	40012c00 	.word	0x40012c00

080029f8 <HAL_TIM_OC_ConfigChannel>:
 80029f8:	b538      	push	{r3, r4, r5, lr}
 80029fa:	f890 303c 	ldrb.w	r3, [r0, #60]	; 0x3c
 80029fe:	4605      	mov	r5, r0
 8002a00:	2b01      	cmp	r3, #1
 8002a02:	d01f      	beq.n	8002a44 <HAL_TIM_OC_ConfigChannel+0x4c>
 8002a04:	2001      	movs	r0, #1
 8002a06:	2a08      	cmp	r2, #8
 8002a08:	f885 003c 	strb.w	r0, [r5, #60]	; 0x3c
 8002a0c:	d016      	beq.n	8002a3c <HAL_TIM_OC_ConfigChannel+0x44>
 8002a0e:	d806      	bhi.n	8002a1e <HAL_TIM_OC_ConfigChannel+0x26>
 8002a10:	b15a      	cbz	r2, 8002a2a <HAL_TIM_OC_ConfigChannel+0x32>
 8002a12:	2a04      	cmp	r2, #4
 8002a14:	d00e      	beq.n	8002a34 <HAL_TIM_OC_ConfigChannel+0x3c>
 8002a16:	2300      	movs	r3, #0
 8002a18:	f885 303c 	strb.w	r3, [r5, #60]	; 0x3c
 8002a1c:	bd38      	pop	{r3, r4, r5, pc}
 8002a1e:	2a0c      	cmp	r2, #12
 8002a20:	d1f9      	bne.n	8002a16 <HAL_TIM_OC_ConfigChannel+0x1e>
 8002a22:	6828      	ldr	r0, [r5, #0]
 8002a24:	f7ff fe26 	bl	8002674 <TIM_OC4_SetConfig>
 8002a28:	e002      	b.n	8002a30 <HAL_TIM_OC_ConfigChannel+0x38>
 8002a2a:	6828      	ldr	r0, [r5, #0]
 8002a2c:	f7ff fdd0 	bl	80025d0 <TIM_OC1_SetConfig>
 8002a30:	2000      	movs	r0, #0
 8002a32:	e7f0      	b.n	8002a16 <HAL_TIM_OC_ConfigChannel+0x1e>
 8002a34:	6828      	ldr	r0, [r5, #0]
 8002a36:	f7ff ffb3 	bl	80029a0 <TIM_OC2_SetConfig>
 8002a3a:	e7f9      	b.n	8002a30 <HAL_TIM_OC_ConfigChannel+0x38>
 8002a3c:	6828      	ldr	r0, [r5, #0]
 8002a3e:	f7ff fdef 	bl	8002620 <TIM_OC3_SetConfig>
 8002a42:	e7f5      	b.n	8002a30 <HAL_TIM_OC_ConfigChannel+0x38>
 8002a44:	2002      	movs	r0, #2
 8002a46:	e7e9      	b.n	8002a1c <HAL_TIM_OC_ConfigChannel+0x24>

08002a48 <HAL_TIM_PWM_ConfigChannel>:
 8002a48:	b570      	push	{r4, r5, r6, lr}
 8002a4a:	f890 303c 	ldrb.w	r3, [r0, #60]	; 0x3c
 8002a4e:	4605      	mov	r5, r0
 8002a50:	2b01      	cmp	r3, #1
 8002a52:	d053      	beq.n	8002afc <HAL_TIM_PWM_ConfigChannel+0xb4>
 8002a54:	2001      	movs	r0, #1
 8002a56:	2a08      	cmp	r2, #8
 8002a58:	f885 003c 	strb.w	r0, [r5, #60]	; 0x3c
 8002a5c:	d03d      	beq.n	8002ada <HAL_TIM_PWM_ConfigChannel+0x92>
 8002a5e:	d806      	bhi.n	8002a6e <HAL_TIM_PWM_ConfigChannel+0x26>
 8002a60:	b1c2      	cbz	r2, 8002a94 <HAL_TIM_PWM_ConfigChannel+0x4c>
 8002a62:	2a04      	cmp	r2, #4
 8002a64:	d028      	beq.n	8002ab8 <HAL_TIM_PWM_ConfigChannel+0x70>
 8002a66:	2300      	movs	r3, #0
 8002a68:	f885 303c 	strb.w	r3, [r5, #60]	; 0x3c
 8002a6c:	bd70      	pop	{r4, r5, r6, pc}
 8002a6e:	2a0c      	cmp	r2, #12
 8002a70:	d1f9      	bne.n	8002a66 <HAL_TIM_PWM_ConfigChannel+0x1e>
 8002a72:	6828      	ldr	r0, [r5, #0]
 8002a74:	f7ff fdfe 	bl	8002674 <TIM_OC4_SetConfig>
 8002a78:	682b      	ldr	r3, [r5, #0]
 8002a7a:	6909      	ldr	r1, [r1, #16]
 8002a7c:	69da      	ldr	r2, [r3, #28]
 8002a7e:	f442 6200 	orr.w	r2, r2, #2048	; 0x800
 8002a82:	61da      	str	r2, [r3, #28]
 8002a84:	69da      	ldr	r2, [r3, #28]
 8002a86:	f422 6280 	bic.w	r2, r2, #1024	; 0x400
 8002a8a:	61da      	str	r2, [r3, #28]
 8002a8c:	69da      	ldr	r2, [r3, #28]
 8002a8e:	ea42 2201 	orr.w	r2, r2, r1, lsl #8
 8002a92:	e031      	b.n	8002af8 <HAL_TIM_PWM_ConfigChannel+0xb0>
 8002a94:	6828      	ldr	r0, [r5, #0]
 8002a96:	f7ff fd9b 	bl	80025d0 <TIM_OC1_SetConfig>
 8002a9a:	682b      	ldr	r3, [r5, #0]
 8002a9c:	6909      	ldr	r1, [r1, #16]
 8002a9e:	699a      	ldr	r2, [r3, #24]
 8002aa0:	f042 0208 	orr.w	r2, r2, #8
 8002aa4:	619a      	str	r2, [r3, #24]
 8002aa6:	699a      	ldr	r2, [r3, #24]
 8002aa8:	f022 0204 	bic.w	r2, r2, #4
 8002aac:	619a      	str	r2, [r3, #24]
 8002aae:	699a      	ldr	r2, [r3, #24]
 8002ab0:	430a      	orrs	r2, r1
 8002ab2:	619a      	str	r2, [r3, #24]
 8002ab4:	2000      	movs	r0, #0
 8002ab6:	e7d6      	b.n	8002a66 <HAL_TIM_PWM_ConfigChannel+0x1e>
 8002ab8:	6828      	ldr	r0, [r5, #0]
 8002aba:	f7ff ff71 	bl	80029a0 <TIM_OC2_SetConfig>
 8002abe:	682b      	ldr	r3, [r5, #0]
 8002ac0:	6909      	ldr	r1, [r1, #16]
 8002ac2:	699a      	ldr	r2, [r3, #24]
 8002ac4:	f442 6200 	orr.w	r2, r2, #2048	; 0x800
 8002ac8:	619a      	str	r2, [r3, #24]
 8002aca:	699a      	ldr	r2, [r3, #24]
 8002acc:	f422 6280 	bic.w	r2, r2, #1024	; 0x400
 8002ad0:	619a      	str	r2, [r3, #24]
 8002ad2:	699a      	ldr	r2, [r3, #24]
 8002ad4:	ea42 2201 	orr.w	r2, r2, r1, lsl #8
 8002ad8:	e7eb      	b.n	8002ab2 <HAL_TIM_PWM_ConfigChannel+0x6a>
 8002ada:	6828      	ldr	r0, [r5, #0]
 8002adc:	f7ff fda0 	bl	8002620 <TIM_OC3_SetConfig>
 8002ae0:	682b      	ldr	r3, [r5, #0]
 8002ae2:	6909      	ldr	r1, [r1, #16]
 8002ae4:	69da      	ldr	r2, [r3, #28]
 8002ae6:	f042 0208 	orr.w	r2, r2, #8
 8002aea:	61da      	str	r2, [r3, #28]
 8002aec:	69da      	ldr	r2, [r3, #28]
 8002aee:	f022 0204 	bic.w	r2, r2, #4
 8002af2:	61da      	str	r2, [r3, #28]
 8002af4:	69da      	ldr	r2, [r3, #28]
 8002af6:	430a      	orrs	r2, r1
 8002af8:	61da      	str	r2, [r3, #28]
 8002afa:	e7db      	b.n	8002ab4 <HAL_TIM_PWM_ConfigChannel+0x6c>
 8002afc:	2002      	movs	r0, #2
 8002afe:	e7b5      	b.n	8002a6c <HAL_TIM_PWM_ConfigChannel+0x24>

08002b00 <TIM_TI1_SetConfig>:
 8002b00:	b570      	push	{r4, r5, r6, lr}
 8002b02:	6a05      	ldr	r5, [r0, #32]
 8002b04:	6a04      	ldr	r4, [r0, #32]
 8002b06:	4e12      	ldr	r6, [pc, #72]	; (8002b50 <TIM_TI1_SetConfig+0x50>)
 8002b08:	f024 0401 	bic.w	r4, r4, #1
 8002b0c:	6204      	str	r4, [r0, #32]
 8002b0e:	42b0      	cmp	r0, r6
 8002b10:	6984      	ldr	r4, [r0, #24]
 8002b12:	d019      	beq.n	8002b48 <TIM_TI1_SetConfig+0x48>
 8002b14:	f1b0 4f80 	cmp.w	r0, #1073741824	; 0x40000000
 8002b18:	d016      	beq.n	8002b48 <TIM_TI1_SetConfig+0x48>
 8002b1a:	f5a6 3694 	sub.w	r6, r6, #75776	; 0x12800
 8002b1e:	42b0      	cmp	r0, r6
 8002b20:	d012      	beq.n	8002b48 <TIM_TI1_SetConfig+0x48>
 8002b22:	f506 6680 	add.w	r6, r6, #1024	; 0x400
 8002b26:	42b0      	cmp	r0, r6
 8002b28:	d00e      	beq.n	8002b48 <TIM_TI1_SetConfig+0x48>
 8002b2a:	f044 0201 	orr.w	r2, r4, #1
 8002b2e:	011b      	lsls	r3, r3, #4
 8002b30:	f022 02f0 	bic.w	r2, r2, #240	; 0xf0
 8002b34:	b2db      	uxtb	r3, r3
 8002b36:	4313      	orrs	r3, r2
 8002b38:	f001 010a 	and.w	r1, r1, #10
 8002b3c:	f025 020a 	bic.w	r2, r5, #10
 8002b40:	4311      	orrs	r1, r2
 8002b42:	6183      	str	r3, [r0, #24]
 8002b44:	6201      	str	r1, [r0, #32]
 8002b46:	bd70      	pop	{r4, r5, r6, pc}
 8002b48:	f024 0403 	bic.w	r4, r4, #3
 8002b4c:	4322      	orrs	r2, r4
 8002b4e:	e7ee      	b.n	8002b2e <TIM_TI1_SetConfig+0x2e>
 8002b50:	40012c00 	.word	0x40012c00

08002b54 <HAL_TIM_IC_ConfigChannel>:
 8002b54:	b5f8      	push	{r3, r4, r5, r6, r7, lr}
 8002b56:	f890 303c 	ldrb.w	r3, [r0, #60]	; 0x3c
 8002b5a:	4605      	mov	r5, r0
 8002b5c:	2b01      	cmp	r3, #1
 8002b5e:	460c      	mov	r4, r1
 8002b60:	f000 8088 	beq.w	8002c74 <HAL_TIM_IC_ConfigChannel+0x120>
 8002b64:	2001      	movs	r0, #1
 8002b66:	f885 003c 	strb.w	r0, [r5, #60]	; 0x3c
 8002b6a:	b992      	cbnz	r2, 8002b92 <HAL_TIM_IC_ConfigChannel+0x3e>
 8002b6c:	68cb      	ldr	r3, [r1, #12]
 8002b6e:	6828      	ldr	r0, [r5, #0]
 8002b70:	c906      	ldmia	r1, {r1, r2}
 8002b72:	f7ff ffc5 	bl	8002b00 <TIM_TI1_SetConfig>
 8002b76:	682b      	ldr	r3, [r5, #0]
 8002b78:	68a1      	ldr	r1, [r4, #8]
 8002b7a:	699a      	ldr	r2, [r3, #24]
 8002b7c:	f022 020c 	bic.w	r2, r2, #12
 8002b80:	619a      	str	r2, [r3, #24]
 8002b82:	699a      	ldr	r2, [r3, #24]
 8002b84:	430a      	orrs	r2, r1
 8002b86:	619a      	str	r2, [r3, #24]
 8002b88:	2000      	movs	r0, #0
 8002b8a:	2300      	movs	r3, #0
 8002b8c:	f885 303c 	strb.w	r3, [r5, #60]	; 0x3c
 8002b90:	bdf8      	pop	{r3, r4, r5, r6, r7, pc}
 8002b92:	2a04      	cmp	r2, #4
 8002b94:	d123      	bne.n	8002bde <HAL_TIM_IC_ConfigChannel+0x8a>
 8002b96:	e9d1 2c00 	ldrd	r2, ip, [r1]
 8002b9a:	682b      	ldr	r3, [r5, #0]
 8002b9c:	68c9      	ldr	r1, [r1, #12]
 8002b9e:	6a1e      	ldr	r6, [r3, #32]
 8002ba0:	6a1f      	ldr	r7, [r3, #32]
 8002ba2:	0309      	lsls	r1, r1, #12
 8002ba4:	f027 0710 	bic.w	r7, r7, #16
 8002ba8:	621f      	str	r7, [r3, #32]
 8002baa:	6998      	ldr	r0, [r3, #24]
 8002bac:	b289      	uxth	r1, r1
 8002bae:	f420 7040 	bic.w	r0, r0, #768	; 0x300
 8002bb2:	ea40 200c 	orr.w	r0, r0, ip, lsl #8
 8002bb6:	f420 4070 	bic.w	r0, r0, #61440	; 0xf000
 8002bba:	0112      	lsls	r2, r2, #4
 8002bbc:	4301      	orrs	r1, r0
 8002bbe:	f002 02a0 	and.w	r2, r2, #160	; 0xa0
 8002bc2:	f026 00a0 	bic.w	r0, r6, #160	; 0xa0
 8002bc6:	4302      	orrs	r2, r0
 8002bc8:	6199      	str	r1, [r3, #24]
 8002bca:	621a      	str	r2, [r3, #32]
 8002bcc:	699a      	ldr	r2, [r3, #24]
 8002bce:	68a1      	ldr	r1, [r4, #8]
 8002bd0:	f422 6240 	bic.w	r2, r2, #3072	; 0xc00
 8002bd4:	619a      	str	r2, [r3, #24]
 8002bd6:	699a      	ldr	r2, [r3, #24]
 8002bd8:	ea42 2201 	orr.w	r2, r2, r1, lsl #8
 8002bdc:	e7d3      	b.n	8002b86 <HAL_TIM_IC_ConfigChannel+0x32>
 8002bde:	2a08      	cmp	r2, #8
 8002be0:	d122      	bne.n	8002c28 <HAL_TIM_IC_ConfigChannel+0xd4>
 8002be2:	e9d1 2000 	ldrd	r2, r0, [r1]
 8002be6:	682b      	ldr	r3, [r5, #0]
 8002be8:	68c9      	ldr	r1, [r1, #12]
 8002bea:	6a1e      	ldr	r6, [r3, #32]
 8002bec:	6a1f      	ldr	r7, [r3, #32]
 8002bee:	0109      	lsls	r1, r1, #4
 8002bf0:	f427 7780 	bic.w	r7, r7, #256	; 0x100
 8002bf4:	621f      	str	r7, [r3, #32]
 8002bf6:	69df      	ldr	r7, [r3, #28]
 8002bf8:	b2c9      	uxtb	r1, r1
 8002bfa:	f027 0703 	bic.w	r7, r7, #3
 8002bfe:	4338      	orrs	r0, r7
 8002c00:	f020 00f0 	bic.w	r0, r0, #240	; 0xf0
 8002c04:	0212      	lsls	r2, r2, #8
 8002c06:	4301      	orrs	r1, r0
 8002c08:	f402 7200 	and.w	r2, r2, #512	; 0x200
 8002c0c:	f426 7000 	bic.w	r0, r6, #512	; 0x200
 8002c10:	4302      	orrs	r2, r0
 8002c12:	61d9      	str	r1, [r3, #28]
 8002c14:	621a      	str	r2, [r3, #32]
 8002c16:	69da      	ldr	r2, [r3, #28]
 8002c18:	68a1      	ldr	r1, [r4, #8]
 8002c1a:	f022 020c 	bic.w	r2, r2, #12
 8002c1e:	61da      	str	r2, [r3, #28]
 8002c20:	69da      	ldr	r2, [r3, #28]
 8002c22:	430a      	orrs	r2, r1
 8002c24:	61da      	str	r2, [r3, #28]
 8002c26:	e7af      	b.n	8002b88 <HAL_TIM_IC_ConfigChannel+0x34>
 8002c28:	2a0c      	cmp	r2, #12
 8002c2a:	d1ae      	bne.n	8002b8a <HAL_TIM_IC_ConfigChannel+0x36>
 8002c2c:	e9d1 2c00 	ldrd	r2, ip, [r1]
 8002c30:	682b      	ldr	r3, [r5, #0]
 8002c32:	68c9      	ldr	r1, [r1, #12]
 8002c34:	6a1e      	ldr	r6, [r3, #32]
 8002c36:	6a1f      	ldr	r7, [r3, #32]
 8002c38:	0309      	lsls	r1, r1, #12
 8002c3a:	f427 5780 	bic.w	r7, r7, #4096	; 0x1000
 8002c3e:	621f      	str	r7, [r3, #32]
 8002c40:	69d8      	ldr	r0, [r3, #28]
 8002c42:	b289      	uxth	r1, r1
 8002c44:	f420 7040 	bic.w	r0, r0, #768	; 0x300
 8002c48:	ea40 200c 	orr.w	r0, r0, ip, lsl #8
 8002c4c:	f420 4070 	bic.w	r0, r0, #61440	; 0xf000
 8002c50:	0312      	lsls	r2, r2, #12
 8002c52:	4301      	orrs	r1, r0
 8002c54:	f402 5200 	and.w	r2, r2, #8192	; 0x2000
 8002c58:	f426 5000 	bic.w	r0, r6, #8192	; 0x2000
 8002c5c:	4302      	orrs	r2, r0
 8002c5e:	61d9      	str	r1, [r3, #28]
 8002c60:	621a      	str	r2, [r3, #32]
 8002c62:	69da      	ldr	r2, [r3, #28]
 8002c64:	68a1      	ldr	r1, [r4, #8]
 8002c66:	f422 6240 	bic.w	r2, r2, #3072	; 0xc00
 8002c6a:	61da      	str	r2, [r3, #28]
 8002c6c:	69da      	ldr	r2, [r3, #28]
 8002c6e:	ea42 2201 	orr.w	r2, r2, r1, lsl #8
 8002c72:	e7d7      	b.n	8002c24 <HAL_TIM_IC_ConfigChannel+0xd0>
 8002c74:	2002      	movs	r0, #2
 8002c76:	e78b      	b.n	8002b90 <HAL_TIM_IC_ConfigChannel+0x3c>

08002c78 <TIM_ETR_SetConfig>:
 8002c78:	b510      	push	{r4, lr}
 8002c7a:	6884      	ldr	r4, [r0, #8]
 8002c7c:	430a      	orrs	r2, r1
 8002c7e:	f424 447f 	bic.w	r4, r4, #65280	; 0xff00
 8002c82:	ea42 2203 	orr.w	r2, r2, r3, lsl #8
 8002c86:	4322      	orrs	r2, r4
 8002c88:	6082      	str	r2, [r0, #8]
 8002c8a:	bd10      	pop	{r4, pc}

08002c8c <HAL_TIM_ConfigClockSource>:
 8002c8c:	b570      	push	{r4, r5, r6, lr}
 8002c8e:	f890 303c 	ldrb.w	r3, [r0, #60]	; 0x3c
 8002c92:	4604      	mov	r4, r0
 8002c94:	2b01      	cmp	r3, #1
 8002c96:	f04f 0302 	mov.w	r3, #2
 8002c9a:	f000 8091 	beq.w	8002dc0 <HAL_TIM_ConfigClockSource+0x134>
 8002c9e:	2201      	movs	r2, #1
 8002ca0:	f880 303d 	strb.w	r3, [r0, #61]	; 0x3d
 8002ca4:	f880 203c 	strb.w	r2, [r0, #60]	; 0x3c
 8002ca8:	6800      	ldr	r0, [r0, #0]
 8002caa:	6883      	ldr	r3, [r0, #8]
 8002cac:	f423 437f 	bic.w	r3, r3, #65280	; 0xff00
 8002cb0:	f023 0377 	bic.w	r3, r3, #119	; 0x77
 8002cb4:	6083      	str	r3, [r0, #8]
 8002cb6:	680b      	ldr	r3, [r1, #0]
 8002cb8:	2b60      	cmp	r3, #96	; 0x60
 8002cba:	d052      	beq.n	8002d62 <HAL_TIM_ConfigClockSource+0xd6>
 8002cbc:	d833      	bhi.n	8002d26 <HAL_TIM_ConfigClockSource+0x9a>
 8002cbe:	2b40      	cmp	r3, #64	; 0x40
 8002cc0:	d067      	beq.n	8002d92 <HAL_TIM_ConfigClockSource+0x106>
 8002cc2:	d816      	bhi.n	8002cf2 <HAL_TIM_ConfigClockSource+0x66>
 8002cc4:	2b20      	cmp	r3, #32
 8002cc6:	d00d      	beq.n	8002ce4 <HAL_TIM_ConfigClockSource+0x58>
 8002cc8:	d80a      	bhi.n	8002ce0 <HAL_TIM_ConfigClockSource+0x54>
 8002cca:	f033 0110 	bics.w	r1, r3, #16
 8002cce:	d009      	beq.n	8002ce4 <HAL_TIM_ConfigClockSource+0x58>
 8002cd0:	2301      	movs	r3, #1
 8002cd2:	f884 303d 	strb.w	r3, [r4, #61]	; 0x3d
 8002cd6:	2300      	movs	r3, #0
 8002cd8:	f884 303c 	strb.w	r3, [r4, #60]	; 0x3c
 8002cdc:	4610      	mov	r0, r2
 8002cde:	bd70      	pop	{r4, r5, r6, pc}
 8002ce0:	2b30      	cmp	r3, #48	; 0x30
 8002ce2:	d1f5      	bne.n	8002cd0 <HAL_TIM_ConfigClockSource+0x44>
 8002ce4:	6882      	ldr	r2, [r0, #8]
 8002ce6:	f022 0270 	bic.w	r2, r2, #112	; 0x70
 8002cea:	4313      	orrs	r3, r2
 8002cec:	f043 0307 	orr.w	r3, r3, #7
 8002cf0:	e017      	b.n	8002d22 <HAL_TIM_ConfigClockSource+0x96>
 8002cf2:	2b50      	cmp	r3, #80	; 0x50
 8002cf4:	d1ec      	bne.n	8002cd0 <HAL_TIM_ConfigClockSource+0x44>
 8002cf6:	684a      	ldr	r2, [r1, #4]
 8002cf8:	68ce      	ldr	r6, [r1, #12]
 8002cfa:	6a01      	ldr	r1, [r0, #32]
 8002cfc:	6a05      	ldr	r5, [r0, #32]
 8002cfe:	f021 010a 	bic.w	r1, r1, #10
 8002d02:	f025 0501 	bic.w	r5, r5, #1
 8002d06:	6205      	str	r5, [r0, #32]
 8002d08:	6983      	ldr	r3, [r0, #24]
 8002d0a:	430a      	orrs	r2, r1
 8002d0c:	f023 03f0 	bic.w	r3, r3, #240	; 0xf0
 8002d10:	ea43 1306 	orr.w	r3, r3, r6, lsl #4
 8002d14:	6183      	str	r3, [r0, #24]
 8002d16:	6202      	str	r2, [r0, #32]
 8002d18:	6883      	ldr	r3, [r0, #8]
 8002d1a:	f023 0370 	bic.w	r3, r3, #112	; 0x70
 8002d1e:	f043 0357 	orr.w	r3, r3, #87	; 0x57
 8002d22:	6083      	str	r3, [r0, #8]
 8002d24:	e011      	b.n	8002d4a <HAL_TIM_ConfigClockSource+0xbe>
 8002d26:	f5b3 5f80 	cmp.w	r3, #4096	; 0x1000
 8002d2a:	d00e      	beq.n	8002d4a <HAL_TIM_ConfigClockSource+0xbe>
 8002d2c:	f5b3 5f00 	cmp.w	r3, #8192	; 0x2000
 8002d30:	d00d      	beq.n	8002d4e <HAL_TIM_ConfigClockSource+0xc2>
 8002d32:	2b70      	cmp	r3, #112	; 0x70
 8002d34:	d1cc      	bne.n	8002cd0 <HAL_TIM_ConfigClockSource+0x44>
 8002d36:	68cb      	ldr	r3, [r1, #12]
 8002d38:	e9d1 2101 	ldrd	r2, r1, [r1, #4]
 8002d3c:	f7ff ff9c 	bl	8002c78 <TIM_ETR_SetConfig>
 8002d40:	6822      	ldr	r2, [r4, #0]
 8002d42:	6893      	ldr	r3, [r2, #8]
 8002d44:	f043 0377 	orr.w	r3, r3, #119	; 0x77
 8002d48:	6093      	str	r3, [r2, #8]
 8002d4a:	2200      	movs	r2, #0
 8002d4c:	e7c0      	b.n	8002cd0 <HAL_TIM_ConfigClockSource+0x44>
 8002d4e:	68cb      	ldr	r3, [r1, #12]
 8002d50:	e9d1 2101 	ldrd	r2, r1, [r1, #4]
 8002d54:	f7ff ff90 	bl	8002c78 <TIM_ETR_SetConfig>
 8002d58:	6822      	ldr	r2, [r4, #0]
 8002d5a:	6893      	ldr	r3, [r2, #8]
 8002d5c:	f443 4380 	orr.w	r3, r3, #16384	; 0x4000
 8002d60:	e7f2      	b.n	8002d48 <HAL_TIM_ConfigClockSource+0xbc>
 8002d62:	6a03      	ldr	r3, [r0, #32]
 8002d64:	684d      	ldr	r5, [r1, #4]
 8002d66:	68ce      	ldr	r6, [r1, #12]
 8002d68:	6a01      	ldr	r1, [r0, #32]
 8002d6a:	f023 03a0 	bic.w	r3, r3, #160	; 0xa0
 8002d6e:	f021 0110 	bic.w	r1, r1, #16
 8002d72:	6201      	str	r1, [r0, #32]
 8002d74:	6982      	ldr	r2, [r0, #24]
 8002d76:	ea43 1305 	orr.w	r3, r3, r5, lsl #4
 8002d7a:	f422 4270 	bic.w	r2, r2, #61440	; 0xf000
 8002d7e:	ea42 3206 	orr.w	r2, r2, r6, lsl #12
 8002d82:	6182      	str	r2, [r0, #24]
 8002d84:	6203      	str	r3, [r0, #32]
 8002d86:	6883      	ldr	r3, [r0, #8]
 8002d88:	f023 0370 	bic.w	r3, r3, #112	; 0x70
 8002d8c:	f043 0367 	orr.w	r3, r3, #103	; 0x67
 8002d90:	e7c7      	b.n	8002d22 <HAL_TIM_ConfigClockSource+0x96>
 8002d92:	684a      	ldr	r2, [r1, #4]
 8002d94:	68ce      	ldr	r6, [r1, #12]
 8002d96:	6a01      	ldr	r1, [r0, #32]
 8002d98:	6a05      	ldr	r5, [r0, #32]
 8002d9a:	f021 010a 	bic.w	r1, r1, #10
 8002d9e:	f025 0501 	bic.w	r5, r5, #1
 8002da2:	6205      	str	r5, [r0, #32]
 8002da4:	6983      	ldr	r3, [r0, #24]
 8002da6:	430a      	orrs	r2, r1
 8002da8:	f023 03f0 	bic.w	r3, r3, #240	; 0xf0
 8002dac:	ea43 1306 	orr.w	r3, r3, r6, lsl #4
 8002db0:	6183      	str	r3, [r0, #24]
 8002db2:	6202      	str	r2, [r0, #32]
 8002db4:	6883      	ldr	r3, [r0, #8]
 8002db6:	f023 0370 	bic.w	r3, r3, #112	; 0x70
 8002dba:	f043 0347 	orr.w	r3, r3, #71	; 0x47
 8002dbe:	e7b0      	b.n	8002d22 <HAL_TIM_ConfigClockSource+0x96>
 8002dc0:	461a      	mov	r2, r3
 8002dc2:	e78b      	b.n	8002cdc <HAL_TIM_ConfigClockSource+0x50>

08002dc4 <TIM_SlaveTimer_SetConfig>:
 8002dc4:	6800      	ldr	r0, [r0, #0]
 8002dc6:	b538      	push	{r3, r4, r5, lr}
 8002dc8:	6882      	ldr	r2, [r0, #8]
 8002dca:	684b      	ldr	r3, [r1, #4]
 8002dcc:	f022 0270 	bic.w	r2, r2, #112	; 0x70
 8002dd0:	680c      	ldr	r4, [r1, #0]
 8002dd2:	431a      	orrs	r2, r3
 8002dd4:	f022 0207 	bic.w	r2, r2, #7
 8002dd8:	4322      	orrs	r2, r4
 8002dda:	2b50      	cmp	r3, #80	; 0x50
 8002ddc:	6082      	str	r2, [r0, #8]
 8002dde:	d02c      	beq.n	8002e3a <TIM_SlaveTimer_SetConfig+0x76>
 8002de0:	d810      	bhi.n	8002e04 <TIM_SlaveTimer_SetConfig+0x40>
 8002de2:	2b40      	cmp	r3, #64	; 0x40
 8002de4:	d019      	beq.n	8002e1a <TIM_SlaveTimer_SetConfig+0x56>
 8002de6:	d84b      	bhi.n	8002e80 <TIM_SlaveTimer_SetConfig+0xbc>
 8002de8:	2b20      	cmp	r3, #32
 8002dea:	d014      	beq.n	8002e16 <TIM_SlaveTimer_SetConfig+0x52>
 8002dec:	d805      	bhi.n	8002dfa <TIM_SlaveTimer_SetConfig+0x36>
 8002dee:	f033 0310 	bics.w	r3, r3, #16
 8002df2:	bf14      	ite	ne
 8002df4:	2001      	movne	r0, #1
 8002df6:	2000      	moveq	r0, #0
 8002df8:	bd38      	pop	{r3, r4, r5, pc}
 8002dfa:	f1b3 0030 	subs.w	r0, r3, #48	; 0x30
 8002dfe:	bf18      	it	ne
 8002e00:	2001      	movne	r0, #1
 8002e02:	e7f9      	b.n	8002df8 <TIM_SlaveTimer_SetConfig+0x34>
 8002e04:	2b60      	cmp	r3, #96	; 0x60
 8002e06:	d028      	beq.n	8002e5a <TIM_SlaveTimer_SetConfig+0x96>
 8002e08:	2b70      	cmp	r3, #112	; 0x70
 8002e0a:	d139      	bne.n	8002e80 <TIM_SlaveTimer_SetConfig+0xbc>
 8002e0c:	690b      	ldr	r3, [r1, #16]
 8002e0e:	e9d1 2102 	ldrd	r2, r1, [r1, #8]
 8002e12:	f7ff ff31 	bl	8002c78 <TIM_ETR_SetConfig>
 8002e16:	2000      	movs	r0, #0
 8002e18:	e7ee      	b.n	8002df8 <TIM_SlaveTimer_SetConfig+0x34>
 8002e1a:	2c05      	cmp	r4, #5
 8002e1c:	d030      	beq.n	8002e80 <TIM_SlaveTimer_SetConfig+0xbc>
 8002e1e:	6a02      	ldr	r2, [r0, #32]
 8002e20:	6a03      	ldr	r3, [r0, #32]
 8002e22:	6909      	ldr	r1, [r1, #16]
 8002e24:	f023 0301 	bic.w	r3, r3, #1
 8002e28:	6203      	str	r3, [r0, #32]
 8002e2a:	6983      	ldr	r3, [r0, #24]
 8002e2c:	f023 03f0 	bic.w	r3, r3, #240	; 0xf0
 8002e30:	ea43 1301 	orr.w	r3, r3, r1, lsl #4
 8002e34:	6183      	str	r3, [r0, #24]
 8002e36:	6202      	str	r2, [r0, #32]
 8002e38:	e7ed      	b.n	8002e16 <TIM_SlaveTimer_SetConfig+0x52>
 8002e3a:	688a      	ldr	r2, [r1, #8]
 8002e3c:	690d      	ldr	r5, [r1, #16]
 8002e3e:	6a01      	ldr	r1, [r0, #32]
 8002e40:	6a04      	ldr	r4, [r0, #32]
 8002e42:	f021 010a 	bic.w	r1, r1, #10
 8002e46:	f024 0401 	bic.w	r4, r4, #1
 8002e4a:	6204      	str	r4, [r0, #32]
 8002e4c:	6983      	ldr	r3, [r0, #24]
 8002e4e:	430a      	orrs	r2, r1
 8002e50:	f023 03f0 	bic.w	r3, r3, #240	; 0xf0
 8002e54:	ea43 1305 	orr.w	r3, r3, r5, lsl #4
 8002e58:	e7ec      	b.n	8002e34 <TIM_SlaveTimer_SetConfig+0x70>
 8002e5a:	6a03      	ldr	r3, [r0, #32]
 8002e5c:	688c      	ldr	r4, [r1, #8]
 8002e5e:	690d      	ldr	r5, [r1, #16]
 8002e60:	6a01      	ldr	r1, [r0, #32]
 8002e62:	f023 03a0 	bic.w	r3, r3, #160	; 0xa0
 8002e66:	f021 0110 	bic.w	r1, r1, #16
 8002e6a:	6201      	str	r1, [r0, #32]
 8002e6c:	6982      	ldr	r2, [r0, #24]
 8002e6e:	ea43 1304 	orr.w	r3, r3, r4, lsl #4
 8002e72:	f422 4270 	bic.w	r2, r2, #61440	; 0xf000
 8002e76:	ea42 3205 	orr.w	r2, r2, r5, lsl #12
 8002e7a:	6182      	str	r2, [r0, #24]
 8002e7c:	6203      	str	r3, [r0, #32]
 8002e7e:	e7ca      	b.n	8002e16 <TIM_SlaveTimer_SetConfig+0x52>
 8002e80:	2001      	movs	r0, #1
 8002e82:	e7b9      	b.n	8002df8 <TIM_SlaveTimer_SetConfig+0x34>

08002e84 <HAL_TIM_SlaveConfigSynchro>:
 8002e84:	b538      	push	{r3, r4, r5, lr}
 8002e86:	f890 303c 	ldrb.w	r3, [r0, #60]	; 0x3c
 8002e8a:	4604      	mov	r4, r0
 8002e8c:	2b01      	cmp	r3, #1
 8002e8e:	f04f 0302 	mov.w	r3, #2
 8002e92:	d01c      	beq.n	8002ece <HAL_TIM_SlaveConfigSynchro+0x4a>
 8002e94:	2501      	movs	r5, #1
 8002e96:	f880 303d 	strb.w	r3, [r0, #61]	; 0x3d
 8002e9a:	f880 503c 	strb.w	r5, [r0, #60]	; 0x3c
 8002e9e:	f7ff ff91 	bl	8002dc4 <TIM_SlaveTimer_SetConfig>
 8002ea2:	b130      	cbz	r0, 8002eb2 <HAL_TIM_SlaveConfigSynchro+0x2e>
 8002ea4:	2300      	movs	r3, #0
 8002ea6:	4628      	mov	r0, r5
 8002ea8:	f884 503d 	strb.w	r5, [r4, #61]	; 0x3d
 8002eac:	f884 303c 	strb.w	r3, [r4, #60]	; 0x3c
 8002eb0:	bd38      	pop	{r3, r4, r5, pc}
 8002eb2:	6823      	ldr	r3, [r4, #0]
 8002eb4:	68da      	ldr	r2, [r3, #12]
 8002eb6:	f022 0240 	bic.w	r2, r2, #64	; 0x40
 8002eba:	60da      	str	r2, [r3, #12]
 8002ebc:	68da      	ldr	r2, [r3, #12]
 8002ebe:	f422 4280 	bic.w	r2, r2, #16384	; 0x4000
 8002ec2:	60da      	str	r2, [r3, #12]
 8002ec4:	f884 503d 	strb.w	r5, [r4, #61]	; 0x3d
 8002ec8:	f884 003c 	strb.w	r0, [r4, #60]	; 0x3c
 8002ecc:	e7f0      	b.n	8002eb0 <HAL_TIM_SlaveConfigSynchro+0x2c>
 8002ece:	4618      	mov	r0, r3
 8002ed0:	e7ee      	b.n	8002eb0 <HAL_TIM_SlaveConfigSynchro+0x2c>

08002ed2 <TIM_CCxChannelCmd>:
 8002ed2:	b510      	push	{r4, lr}
 8002ed4:	2401      	movs	r4, #1
 8002ed6:	6a03      	ldr	r3, [r0, #32]
 8002ed8:	f001 011f 	and.w	r1, r1, #31
 8002edc:	408c      	lsls	r4, r1
 8002ede:	ea23 0304 	bic.w	r3, r3, r4
 8002ee2:	6203      	str	r3, [r0, #32]
 8002ee4:	6a03      	ldr	r3, [r0, #32]
 8002ee6:	408a      	lsls	r2, r1
 8002ee8:	431a      	orrs	r2, r3
 8002eea:	6202      	str	r2, [r0, #32]
 8002eec:	bd10      	pop	{r4, pc}
	...

08002ef0 <HAL_TIM_OC_Start>:
 8002ef0:	b510      	push	{r4, lr}
 8002ef2:	4604      	mov	r4, r0
 8002ef4:	b929      	cbnz	r1, 8002f02 <HAL_TIM_OC_Start+0x12>
 8002ef6:	f890 303e 	ldrb.w	r3, [r0, #62]	; 0x3e
 8002efa:	2b01      	cmp	r3, #1
 8002efc:	d021      	beq.n	8002f42 <HAL_TIM_OC_Start+0x52>
 8002efe:	2001      	movs	r0, #1
 8002f00:	bd10      	pop	{r4, pc}
 8002f02:	2904      	cmp	r1, #4
 8002f04:	d107      	bne.n	8002f16 <HAL_TIM_OC_Start+0x26>
 8002f06:	f890 303f 	ldrb.w	r3, [r0, #63]	; 0x3f
 8002f0a:	2b01      	cmp	r3, #1
 8002f0c:	d1f7      	bne.n	8002efe <HAL_TIM_OC_Start+0xe>
 8002f0e:	2302      	movs	r3, #2
 8002f10:	f884 303f 	strb.w	r3, [r4, #63]	; 0x3f
 8002f14:	e018      	b.n	8002f48 <HAL_TIM_OC_Start+0x58>
 8002f16:	2908      	cmp	r1, #8
 8002f18:	d107      	bne.n	8002f2a <HAL_TIM_OC_Start+0x3a>
 8002f1a:	f890 3040 	ldrb.w	r3, [r0, #64]	; 0x40
 8002f1e:	2b01      	cmp	r3, #1
 8002f20:	d1ed      	bne.n	8002efe <HAL_TIM_OC_Start+0xe>
 8002f22:	2302      	movs	r3, #2
 8002f24:	f884 3040 	strb.w	r3, [r4, #64]	; 0x40
 8002f28:	e00e      	b.n	8002f48 <HAL_TIM_OC_Start+0x58>
 8002f2a:	f890 3041 	ldrb.w	r3, [r0, #65]	; 0x41
 8002f2e:	2b01      	cmp	r3, #1
 8002f30:	d1e5      	bne.n	8002efe <HAL_TIM_OC_Start+0xe>
 8002f32:	2904      	cmp	r1, #4
 8002f34:	d0eb      	beq.n	8002f0e <HAL_TIM_OC_Start+0x1e>
 8002f36:	2908      	cmp	r1, #8
 8002f38:	d0f3      	beq.n	8002f22 <HAL_TIM_OC_Start+0x32>
 8002f3a:	2302      	movs	r3, #2
 8002f3c:	f880 3041 	strb.w	r3, [r0, #65]	; 0x41
 8002f40:	e002      	b.n	8002f48 <HAL_TIM_OC_Start+0x58>
 8002f42:	2302      	movs	r3, #2
 8002f44:	f880 303e 	strb.w	r3, [r0, #62]	; 0x3e
 8002f48:	2201      	movs	r2, #1
 8002f4a:	6820      	ldr	r0, [r4, #0]
 8002f4c:	f7ff ffc1 	bl	8002ed2 <TIM_CCxChannelCmd>
 8002f50:	6823      	ldr	r3, [r4, #0]
 8002f52:	4a0e      	ldr	r2, [pc, #56]	; (8002f8c <HAL_TIM_OC_Start+0x9c>)
 8002f54:	4293      	cmp	r3, r2
 8002f56:	d10a      	bne.n	8002f6e <HAL_TIM_OC_Start+0x7e>
 8002f58:	6c5a      	ldr	r2, [r3, #68]	; 0x44
 8002f5a:	f442 4200 	orr.w	r2, r2, #32768	; 0x8000
 8002f5e:	645a      	str	r2, [r3, #68]	; 0x44
 8002f60:	689a      	ldr	r2, [r3, #8]
 8002f62:	f002 0207 	and.w	r2, r2, #7
 8002f66:	2a06      	cmp	r2, #6
 8002f68:	d10b      	bne.n	8002f82 <HAL_TIM_OC_Start+0x92>
 8002f6a:	2000      	movs	r0, #0
 8002f6c:	e7c8      	b.n	8002f00 <HAL_TIM_OC_Start+0x10>
 8002f6e:	f1b3 4f80 	cmp.w	r3, #1073741824	; 0x40000000
 8002f72:	d0f5      	beq.n	8002f60 <HAL_TIM_OC_Start+0x70>
 8002f74:	4a06      	ldr	r2, [pc, #24]	; (8002f90 <HAL_TIM_OC_Start+0xa0>)
 8002f76:	4293      	cmp	r3, r2
 8002f78:	d0f2      	beq.n	8002f60 <HAL_TIM_OC_Start+0x70>
 8002f7a:	f502 6280 	add.w	r2, r2, #1024	; 0x400
 8002f7e:	4293      	cmp	r3, r2
 8002f80:	d0ee      	beq.n	8002f60 <HAL_TIM_OC_Start+0x70>
 8002f82:	681a      	ldr	r2, [r3, #0]
 8002f84:	f042 0201 	orr.w	r2, r2, #1
 8002f88:	601a      	str	r2, [r3, #0]
 8002f8a:	e7ee      	b.n	8002f6a <HAL_TIM_OC_Start+0x7a>
 8002f8c:	40012c00 	.word	0x40012c00
 8002f90:	40000400 	.word	0x40000400

08002f94 <HAL_TIM_OC_Start_DMA>:
 8002f94:	b538      	push	{r3, r4, r5, lr}
 8002f96:	460d      	mov	r5, r1
 8002f98:	4604      	mov	r4, r0
 8002f9a:	4611      	mov	r1, r2
 8002f9c:	b92d      	cbnz	r5, 8002faa <HAL_TIM_OC_Start_DMA+0x16>
 8002f9e:	f890 203e 	ldrb.w	r2, [r0, #62]	; 0x3e
 8002fa2:	2a02      	cmp	r2, #2
 8002fa4:	b2d0      	uxtb	r0, r2
 8002fa6:	d114      	bne.n	8002fd2 <HAL_TIM_OC_Start_DMA+0x3e>
 8002fa8:	bd38      	pop	{r3, r4, r5, pc}
 8002faa:	2d04      	cmp	r5, #4
 8002fac:	d10a      	bne.n	8002fc4 <HAL_TIM_OC_Start_DMA+0x30>
 8002fae:	f890 003f 	ldrb.w	r0, [r0, #63]	; 0x3f
 8002fb2:	f1a0 0c02 	sub.w	ip, r0, #2
 8002fb6:	f1dc 0000 	rsbs	r0, ip, #0
 8002fba:	eb40 000c 	adc.w	r0, r0, ip
 8002fbe:	b180      	cbz	r0, 8002fe2 <HAL_TIM_OC_Start_DMA+0x4e>
 8002fc0:	2002      	movs	r0, #2
 8002fc2:	e7f1      	b.n	8002fa8 <HAL_TIM_OC_Start_DMA+0x14>
 8002fc4:	2d08      	cmp	r5, #8
 8002fc6:	bf0c      	ite	eq
 8002fc8:	f890 0040 	ldrbeq.w	r0, [r0, #64]	; 0x40
 8002fcc:	f894 0041 	ldrbne.w	r0, [r4, #65]	; 0x41
 8002fd0:	e7ef      	b.n	8002fb2 <HAL_TIM_OC_Start_DMA+0x1e>
 8002fd2:	f894 203e 	ldrb.w	r2, [r4, #62]	; 0x3e
 8002fd6:	1e50      	subs	r0, r2, #1
 8002fd8:	4242      	negs	r2, r0
 8002fda:	4142      	adcs	r2, r0
 8002fdc:	b962      	cbnz	r2, 8002ff8 <HAL_TIM_OC_Start_DMA+0x64>
 8002fde:	2001      	movs	r0, #1
 8002fe0:	e7e2      	b.n	8002fa8 <HAL_TIM_OC_Start_DMA+0x14>
 8002fe2:	2d04      	cmp	r5, #4
 8002fe4:	d102      	bne.n	8002fec <HAL_TIM_OC_Start_DMA+0x58>
 8002fe6:	f894 203f 	ldrb.w	r2, [r4, #63]	; 0x3f
 8002fea:	e7f4      	b.n	8002fd6 <HAL_TIM_OC_Start_DMA+0x42>
 8002fec:	2d08      	cmp	r5, #8
 8002fee:	d131      	bne.n	8003054 <HAL_TIM_OC_Start_DMA+0xc0>
 8002ff0:	f894 2040 	ldrb.w	r2, [r4, #64]	; 0x40
 8002ff4:	2a01      	cmp	r2, #1
 8002ff6:	d1f2      	bne.n	8002fde <HAL_TIM_OC_Start_DMA+0x4a>
 8002ff8:	2900      	cmp	r1, #0
 8002ffa:	d0f0      	beq.n	8002fde <HAL_TIM_OC_Start_DMA+0x4a>
 8002ffc:	2b00      	cmp	r3, #0
 8002ffe:	d0ee      	beq.n	8002fde <HAL_TIM_OC_Start_DMA+0x4a>
 8003000:	2202      	movs	r2, #2
 8003002:	bb55      	cbnz	r5, 800305a <HAL_TIM_OC_Start_DMA+0xc6>
 8003004:	f884 203e 	strb.w	r2, [r4, #62]	; 0x3e
 8003008:	6a60      	ldr	r0, [r4, #36]	; 0x24
 800300a:	4a3c      	ldr	r2, [pc, #240]	; (80030fc <HAL_TIM_OC_Start_DMA+0x168>)
 800300c:	6282      	str	r2, [r0, #40]	; 0x28
 800300e:	4a3c      	ldr	r2, [pc, #240]	; (8003100 <HAL_TIM_OC_Start_DMA+0x16c>)
 8003010:	62c2      	str	r2, [r0, #44]	; 0x2c
 8003012:	4a3c      	ldr	r2, [pc, #240]	; (8003104 <HAL_TIM_OC_Start_DMA+0x170>)
 8003014:	6302      	str	r2, [r0, #48]	; 0x30
 8003016:	6822      	ldr	r2, [r4, #0]
 8003018:	3234      	adds	r2, #52	; 0x34
 800301a:	f7fe fe83 	bl	8001d24 <HAL_DMA_Start_IT>
 800301e:	2800      	cmp	r0, #0
 8003020:	d1dd      	bne.n	8002fde <HAL_TIM_OC_Start_DMA+0x4a>
 8003022:	6822      	ldr	r2, [r4, #0]
 8003024:	68d3      	ldr	r3, [r2, #12]
 8003026:	f443 7300 	orr.w	r3, r3, #512	; 0x200
 800302a:	60d3      	str	r3, [r2, #12]
 800302c:	4629      	mov	r1, r5
 800302e:	2201      	movs	r2, #1
 8003030:	6820      	ldr	r0, [r4, #0]
 8003032:	f7ff ff4e 	bl	8002ed2 <TIM_CCxChannelCmd>
 8003036:	6823      	ldr	r3, [r4, #0]
 8003038:	4a33      	ldr	r2, [pc, #204]	; (8003108 <HAL_TIM_OC_Start_DMA+0x174>)
 800303a:	4293      	cmp	r3, r2
 800303c:	d14f      	bne.n	80030de <HAL_TIM_OC_Start_DMA+0x14a>
 800303e:	6c5a      	ldr	r2, [r3, #68]	; 0x44
 8003040:	f442 4200 	orr.w	r2, r2, #32768	; 0x8000
 8003044:	645a      	str	r2, [r3, #68]	; 0x44
 8003046:	689a      	ldr	r2, [r3, #8]
 8003048:	f002 0207 	and.w	r2, r2, #7
 800304c:	2a06      	cmp	r2, #6
 800304e:	d150      	bne.n	80030f2 <HAL_TIM_OC_Start_DMA+0x15e>
 8003050:	2000      	movs	r0, #0
 8003052:	e7a9      	b.n	8002fa8 <HAL_TIM_OC_Start_DMA+0x14>
 8003054:	f894 2041 	ldrb.w	r2, [r4, #65]	; 0x41
 8003058:	e7cc      	b.n	8002ff4 <HAL_TIM_OC_Start_DMA+0x60>
 800305a:	2d04      	cmp	r5, #4
 800305c:	d113      	bne.n	8003086 <HAL_TIM_OC_Start_DMA+0xf2>
 800305e:	f884 203f 	strb.w	r2, [r4, #63]	; 0x3f
 8003062:	6aa0      	ldr	r0, [r4, #40]	; 0x28
 8003064:	4a25      	ldr	r2, [pc, #148]	; (80030fc <HAL_TIM_OC_Start_DMA+0x168>)
 8003066:	6282      	str	r2, [r0, #40]	; 0x28
 8003068:	4a25      	ldr	r2, [pc, #148]	; (8003100 <HAL_TIM_OC_Start_DMA+0x16c>)
 800306a:	62c2      	str	r2, [r0, #44]	; 0x2c
 800306c:	4a25      	ldr	r2, [pc, #148]	; (8003104 <HAL_TIM_OC_Start_DMA+0x170>)
 800306e:	6302      	str	r2, [r0, #48]	; 0x30
 8003070:	6822      	ldr	r2, [r4, #0]
 8003072:	3238      	adds	r2, #56	; 0x38
 8003074:	f7fe fe56 	bl	8001d24 <HAL_DMA_Start_IT>
 8003078:	2800      	cmp	r0, #0
 800307a:	d1b0      	bne.n	8002fde <HAL_TIM_OC_Start_DMA+0x4a>
 800307c:	6822      	ldr	r2, [r4, #0]
 800307e:	68d3      	ldr	r3, [r2, #12]
 8003080:	f443 6380 	orr.w	r3, r3, #1024	; 0x400
 8003084:	e7d1      	b.n	800302a <HAL_TIM_OC_Start_DMA+0x96>
 8003086:	2d08      	cmp	r5, #8
 8003088:	d113      	bne.n	80030b2 <HAL_TIM_OC_Start_DMA+0x11e>
 800308a:	f884 2040 	strb.w	r2, [r4, #64]	; 0x40
 800308e:	6ae0      	ldr	r0, [r4, #44]	; 0x2c
 8003090:	4a1a      	ldr	r2, [pc, #104]	; (80030fc <HAL_TIM_OC_Start_DMA+0x168>)
 8003092:	6282      	str	r2, [r0, #40]	; 0x28
 8003094:	4a1a      	ldr	r2, [pc, #104]	; (8003100 <HAL_TIM_OC_Start_DMA+0x16c>)
 8003096:	62c2      	str	r2, [r0, #44]	; 0x2c
 8003098:	4a1a      	ldr	r2, [pc, #104]	; (8003104 <HAL_TIM_OC_Start_DMA+0x170>)
 800309a:	6302      	str	r2, [r0, #48]	; 0x30
 800309c:	6822      	ldr	r2, [r4, #0]
 800309e:	323c      	adds	r2, #60	; 0x3c
 80030a0:	f7fe fe40 	bl	8001d24 <HAL_DMA_Start_IT>
 80030a4:	2800      	cmp	r0, #0
 80030a6:	d19a      	bne.n	8002fde <HAL_TIM_OC_Start_DMA+0x4a>
 80030a8:	6822      	ldr	r2, [r4, #0]
 80030aa:	68d3      	ldr	r3, [r2, #12]
 80030ac:	f443 6300 	orr.w	r3, r3, #2048	; 0x800
 80030b0:	e7bb      	b.n	800302a <HAL_TIM_OC_Start_DMA+0x96>
 80030b2:	2d0c      	cmp	r5, #12
 80030b4:	f884 2041 	strb.w	r2, [r4, #65]	; 0x41
 80030b8:	d191      	bne.n	8002fde <HAL_TIM_OC_Start_DMA+0x4a>
 80030ba:	6b20      	ldr	r0, [r4, #48]	; 0x30
 80030bc:	4a0f      	ldr	r2, [pc, #60]	; (80030fc <HAL_TIM_OC_Start_DMA+0x168>)
 80030be:	6282      	str	r2, [r0, #40]	; 0x28
 80030c0:	4a0f      	ldr	r2, [pc, #60]	; (8003100 <HAL_TIM_OC_Start_DMA+0x16c>)
 80030c2:	62c2      	str	r2, [r0, #44]	; 0x2c
 80030c4:	4a0f      	ldr	r2, [pc, #60]	; (8003104 <HAL_TIM_OC_Start_DMA+0x170>)
 80030c6:	6302      	str	r2, [r0, #48]	; 0x30
 80030c8:	6822      	ldr	r2, [r4, #0]
 80030ca:	3240      	adds	r2, #64	; 0x40
 80030cc:	f7fe fe2a 	bl	8001d24 <HAL_DMA_Start_IT>
 80030d0:	2800      	cmp	r0, #0
 80030d2:	d184      	bne.n	8002fde <HAL_TIM_OC_Start_DMA+0x4a>
 80030d4:	6822      	ldr	r2, [r4, #0]
 80030d6:	68d3      	ldr	r3, [r2, #12]
 80030d8:	f443 5380 	orr.w	r3, r3, #4096	; 0x1000
 80030dc:	e7a5      	b.n	800302a <HAL_TIM_OC_Start_DMA+0x96>
 80030de:	f1b3 4f80 	cmp.w	r3, #1073741824	; 0x40000000
 80030e2:	d0b0      	beq.n	8003046 <HAL_TIM_OC_Start_DMA+0xb2>
 80030e4:	4a09      	ldr	r2, [pc, #36]	; (800310c <HAL_TIM_OC_Start_DMA+0x178>)
 80030e6:	4293      	cmp	r3, r2
 80030e8:	d0ad      	beq.n	8003046 <HAL_TIM_OC_Start_DMA+0xb2>
 80030ea:	f502 6280 	add.w	r2, r2, #1024	; 0x400
 80030ee:	4293      	cmp	r3, r2
 80030f0:	d0a9      	beq.n	8003046 <HAL_TIM_OC_Start_DMA+0xb2>
 80030f2:	681a      	ldr	r2, [r3, #0]
 80030f4:	f042 0201 	orr.w	r2, r2, #1
 80030f8:	601a      	str	r2, [r3, #0]
 80030fa:	e7a9      	b.n	8003050 <HAL_TIM_OC_Start_DMA+0xbc>
 80030fc:	080026d1 	.word	0x080026d1
 8003100:	0800273d 	.word	0x0800273d
 8003104:	08002777 	.word	0x08002777
 8003108:	40012c00 	.word	0x40012c00
 800310c:	40000400 	.word	0x40000400

08003110 <HAL_TIM_PWM_Start_DMA>:
 8003110:	f7ff bf40 	b.w	8002f94 <HAL_TIM_OC_Start_DMA>

08003114 <HAL_TIM_OC_Stop_DMA>:
 8003114:	2908      	cmp	r1, #8
 8003116:	b538      	push	{r3, r4, r5, lr}
 8003118:	4605      	mov	r5, r0
 800311a:	460c      	mov	r4, r1
 800311c:	d048      	beq.n	80031b0 <HAL_TIM_OC_Stop_DMA+0x9c>
 800311e:	d804      	bhi.n	800312a <HAL_TIM_OC_Stop_DMA+0x16>
 8003120:	b161      	cbz	r1, 800313c <HAL_TIM_OC_Stop_DMA+0x28>
 8003122:	2904      	cmp	r1, #4
 8003124:	d03d      	beq.n	80031a2 <HAL_TIM_OC_Stop_DMA+0x8e>
 8003126:	2001      	movs	r0, #1
 8003128:	bd38      	pop	{r3, r4, r5, pc}
 800312a:	290c      	cmp	r1, #12
 800312c:	d1fb      	bne.n	8003126 <HAL_TIM_OC_Stop_DMA+0x12>
 800312e:	6802      	ldr	r2, [r0, #0]
 8003130:	6b00      	ldr	r0, [r0, #48]	; 0x30
 8003132:	68d3      	ldr	r3, [r2, #12]
 8003134:	f423 5380 	bic.w	r3, r3, #4096	; 0x1000
 8003138:	60d3      	str	r3, [r2, #12]
 800313a:	e005      	b.n	8003148 <HAL_TIM_OC_Stop_DMA+0x34>
 800313c:	6802      	ldr	r2, [r0, #0]
 800313e:	6a40      	ldr	r0, [r0, #36]	; 0x24
 8003140:	68d3      	ldr	r3, [r2, #12]
 8003142:	f423 7300 	bic.w	r3, r3, #512	; 0x200
 8003146:	60d3      	str	r3, [r2, #12]
 8003148:	f7fe fe28 	bl	8001d9c <HAL_DMA_Abort_IT>
 800314c:	2200      	movs	r2, #0
 800314e:	4621      	mov	r1, r4
 8003150:	6828      	ldr	r0, [r5, #0]
 8003152:	f7ff febe 	bl	8002ed2 <TIM_CCxChannelCmd>
 8003156:	682b      	ldr	r3, [r5, #0]
 8003158:	4a1f      	ldr	r2, [pc, #124]	; (80031d8 <HAL_TIM_OC_Stop_DMA+0xc4>)
 800315a:	4293      	cmp	r3, r2
 800315c:	d10d      	bne.n	800317a <HAL_TIM_OC_Stop_DMA+0x66>
 800315e:	f241 1211 	movw	r2, #4369	; 0x1111
 8003162:	6a19      	ldr	r1, [r3, #32]
 8003164:	4211      	tst	r1, r2
 8003166:	d108      	bne.n	800317a <HAL_TIM_OC_Stop_DMA+0x66>
 8003168:	f240 4244 	movw	r2, #1092	; 0x444
 800316c:	6a19      	ldr	r1, [r3, #32]
 800316e:	4211      	tst	r1, r2
 8003170:	bf02      	ittt	eq
 8003172:	6c5a      	ldreq	r2, [r3, #68]	; 0x44
 8003174:	f422 4200 	biceq.w	r2, r2, #32768	; 0x8000
 8003178:	645a      	streq	r2, [r3, #68]	; 0x44
 800317a:	f241 1211 	movw	r2, #4369	; 0x1111
 800317e:	6a19      	ldr	r1, [r3, #32]
 8003180:	4211      	tst	r1, r2
 8003182:	d108      	bne.n	8003196 <HAL_TIM_OC_Stop_DMA+0x82>
 8003184:	f240 4244 	movw	r2, #1092	; 0x444
 8003188:	6a19      	ldr	r1, [r3, #32]
 800318a:	4211      	tst	r1, r2
 800318c:	bf02      	ittt	eq
 800318e:	681a      	ldreq	r2, [r3, #0]
 8003190:	f022 0201 	biceq.w	r2, r2, #1
 8003194:	601a      	streq	r2, [r3, #0]
 8003196:	2301      	movs	r3, #1
 8003198:	b98c      	cbnz	r4, 80031be <HAL_TIM_OC_Stop_DMA+0xaa>
 800319a:	f885 303e 	strb.w	r3, [r5, #62]	; 0x3e
 800319e:	2000      	movs	r0, #0
 80031a0:	e7c2      	b.n	8003128 <HAL_TIM_OC_Stop_DMA+0x14>
 80031a2:	6802      	ldr	r2, [r0, #0]
 80031a4:	6a80      	ldr	r0, [r0, #40]	; 0x28
 80031a6:	68d3      	ldr	r3, [r2, #12]
 80031a8:	f423 6380 	bic.w	r3, r3, #1024	; 0x400
 80031ac:	60d3      	str	r3, [r2, #12]
 80031ae:	e7cb      	b.n	8003148 <HAL_TIM_OC_Stop_DMA+0x34>
 80031b0:	6802      	ldr	r2, [r0, #0]
 80031b2:	6ac0      	ldr	r0, [r0, #44]	; 0x2c
 80031b4:	68d3      	ldr	r3, [r2, #12]
 80031b6:	f423 6300 	bic.w	r3, r3, #2048	; 0x800
 80031ba:	60d3      	str	r3, [r2, #12]
 80031bc:	e7c4      	b.n	8003148 <HAL_TIM_OC_Stop_DMA+0x34>
 80031be:	2c04      	cmp	r4, #4
 80031c0:	d102      	bne.n	80031c8 <HAL_TIM_OC_Stop_DMA+0xb4>
 80031c2:	f885 303f 	strb.w	r3, [r5, #63]	; 0x3f
 80031c6:	e7ea      	b.n	800319e <HAL_TIM_OC_Stop_DMA+0x8a>
 80031c8:	2c08      	cmp	r4, #8
 80031ca:	bf0c      	ite	eq
 80031cc:	f885 3040 	strbeq.w	r3, [r5, #64]	; 0x40
 80031d0:	f885 3041 	strbne.w	r3, [r5, #65]	; 0x41
 80031d4:	e7e3      	b.n	800319e <HAL_TIM_OC_Stop_DMA+0x8a>
 80031d6:	bf00      	nop
 80031d8:	40012c00 	.word	0x40012c00

080031dc <HAL_TIM_PWM_Stop_DMA>:
 80031dc:	f7ff bf9a 	b.w	8003114 <HAL_TIM_OC_Stop_DMA>

080031e0 <HAL_TIM_IC_Start>:
 80031e0:	b510      	push	{r4, lr}
 80031e2:	4604      	mov	r4, r0
 80031e4:	bb71      	cbnz	r1, 8003244 <HAL_TIM_IC_Start+0x64>
 80031e6:	f890 003e 	ldrb.w	r0, [r0, #62]	; 0x3e
 80031ea:	f894 3042 	ldrb.w	r3, [r4, #66]	; 0x42
 80031ee:	b2c0      	uxtb	r0, r0
 80031f0:	2801      	cmp	r0, #1
 80031f2:	b2db      	uxtb	r3, r3
 80031f4:	d14e      	bne.n	8003294 <HAL_TIM_IC_Start+0xb4>
 80031f6:	2b01      	cmp	r3, #1
 80031f8:	d14d      	bne.n	8003296 <HAL_TIM_IC_Start+0xb6>
 80031fa:	2302      	movs	r3, #2
 80031fc:	2900      	cmp	r1, #0
 80031fe:	d137      	bne.n	8003270 <HAL_TIM_IC_Start+0x90>
 8003200:	f884 303e 	strb.w	r3, [r4, #62]	; 0x3e
 8003204:	f884 3042 	strb.w	r3, [r4, #66]	; 0x42
 8003208:	2201      	movs	r2, #1
 800320a:	6820      	ldr	r0, [r4, #0]
 800320c:	f7ff fe61 	bl	8002ed2 <TIM_CCxChannelCmd>
 8003210:	6823      	ldr	r3, [r4, #0]
 8003212:	4a21      	ldr	r2, [pc, #132]	; (8003298 <HAL_TIM_IC_Start+0xb8>)
 8003214:	4293      	cmp	r3, r2
 8003216:	d00a      	beq.n	800322e <HAL_TIM_IC_Start+0x4e>
 8003218:	f1b3 4f80 	cmp.w	r3, #1073741824	; 0x40000000
 800321c:	d007      	beq.n	800322e <HAL_TIM_IC_Start+0x4e>
 800321e:	f5a2 3294 	sub.w	r2, r2, #75776	; 0x12800
 8003222:	4293      	cmp	r3, r2
 8003224:	d003      	beq.n	800322e <HAL_TIM_IC_Start+0x4e>
 8003226:	f502 6280 	add.w	r2, r2, #1024	; 0x400
 800322a:	4293      	cmp	r3, r2
 800322c:	d104      	bne.n	8003238 <HAL_TIM_IC_Start+0x58>
 800322e:	689a      	ldr	r2, [r3, #8]
 8003230:	f002 0207 	and.w	r2, r2, #7
 8003234:	2a06      	cmp	r2, #6
 8003236:	d003      	beq.n	8003240 <HAL_TIM_IC_Start+0x60>
 8003238:	681a      	ldr	r2, [r3, #0]
 800323a:	f042 0201 	orr.w	r2, r2, #1
 800323e:	601a      	str	r2, [r3, #0]
 8003240:	2000      	movs	r0, #0
 8003242:	e028      	b.n	8003296 <HAL_TIM_IC_Start+0xb6>
 8003244:	2904      	cmp	r1, #4
 8003246:	d105      	bne.n	8003254 <HAL_TIM_IC_Start+0x74>
 8003248:	f890 003f 	ldrb.w	r0, [r0, #63]	; 0x3f
 800324c:	f894 3043 	ldrb.w	r3, [r4, #67]	; 0x43
 8003250:	b2c0      	uxtb	r0, r0
 8003252:	e7cd      	b.n	80031f0 <HAL_TIM_IC_Start+0x10>
 8003254:	2908      	cmp	r1, #8
 8003256:	bf0b      	itete	eq
 8003258:	f890 0040 	ldrbeq.w	r0, [r0, #64]	; 0x40
 800325c:	f894 0041 	ldrbne.w	r0, [r4, #65]	; 0x41
 8003260:	f894 3044 	ldrbeq.w	r3, [r4, #68]	; 0x44
 8003264:	f894 3045 	ldrbne.w	r3, [r4, #69]	; 0x45
 8003268:	bf0c      	ite	eq
 800326a:	b2c0      	uxtbeq	r0, r0
 800326c:	b2c0      	uxtbne	r0, r0
 800326e:	e7bf      	b.n	80031f0 <HAL_TIM_IC_Start+0x10>
 8003270:	2904      	cmp	r1, #4
 8003272:	d104      	bne.n	800327e <HAL_TIM_IC_Start+0x9e>
 8003274:	f884 303f 	strb.w	r3, [r4, #63]	; 0x3f
 8003278:	f884 3043 	strb.w	r3, [r4, #67]	; 0x43
 800327c:	e7c4      	b.n	8003208 <HAL_TIM_IC_Start+0x28>
 800327e:	2908      	cmp	r1, #8
 8003280:	bf0b      	itete	eq
 8003282:	f884 3040 	strbeq.w	r3, [r4, #64]	; 0x40
 8003286:	f884 3041 	strbne.w	r3, [r4, #65]	; 0x41
 800328a:	f884 3044 	strbeq.w	r3, [r4, #68]	; 0x44
 800328e:	f884 3045 	strbne.w	r3, [r4, #69]	; 0x45
 8003292:	e7b9      	b.n	8003208 <HAL_TIM_IC_Start+0x28>
 8003294:	2001      	movs	r0, #1
 8003296:	bd10      	pop	{r4, pc}
 8003298:	40012c00 	.word	0x40012c00

0800329c <HAL_TIMEx_MasterConfigSynchronization>:
 800329c:	b530      	push	{r4, r5, lr}
 800329e:	f890 303c 	ldrb.w	r3, [r0, #60]	; 0x3c
 80032a2:	4602      	mov	r2, r0
 80032a4:	2b01      	cmp	r3, #1
 80032a6:	f04f 0002 	mov.w	r0, #2
 80032aa:	d022      	beq.n	80032f2 <HAL_TIMEx_MasterConfigSynchronization+0x56>
 80032ac:	6813      	ldr	r3, [r2, #0]
 80032ae:	f882 003d 	strb.w	r0, [r2, #61]	; 0x3d
 80032b2:	685c      	ldr	r4, [r3, #4]
 80032b4:	680d      	ldr	r5, [r1, #0]
 80032b6:	f024 0470 	bic.w	r4, r4, #112	; 0x70
 80032ba:	432c      	orrs	r4, r5
 80032bc:	6898      	ldr	r0, [r3, #8]
 80032be:	605c      	str	r4, [r3, #4]
 80032c0:	4c0c      	ldr	r4, [pc, #48]	; (80032f4 <HAL_TIMEx_MasterConfigSynchronization+0x58>)
 80032c2:	42a3      	cmp	r3, r4
 80032c4:	d00a      	beq.n	80032dc <HAL_TIMEx_MasterConfigSynchronization+0x40>
 80032c6:	f1b3 4f80 	cmp.w	r3, #1073741824	; 0x40000000
 80032ca:	d007      	beq.n	80032dc <HAL_TIMEx_MasterConfigSynchronization+0x40>
 80032cc:	f5a4 3494 	sub.w	r4, r4, #75776	; 0x12800
 80032d0:	42a3      	cmp	r3, r4
 80032d2:	d003      	beq.n	80032dc <HAL_TIMEx_MasterConfigSynchronization+0x40>
 80032d4:	f504 6480 	add.w	r4, r4, #1024	; 0x400
 80032d8:	42a3      	cmp	r3, r4
 80032da:	d104      	bne.n	80032e6 <HAL_TIMEx_MasterConfigSynchronization+0x4a>
 80032dc:	6849      	ldr	r1, [r1, #4]
 80032de:	f020 0080 	bic.w	r0, r0, #128	; 0x80
 80032e2:	4301      	orrs	r1, r0
 80032e4:	6099      	str	r1, [r3, #8]
 80032e6:	2301      	movs	r3, #1
 80032e8:	2000      	movs	r0, #0
 80032ea:	f882 303d 	strb.w	r3, [r2, #61]	; 0x3d
 80032ee:	f882 003c 	strb.w	r0, [r2, #60]	; 0x3c
 80032f2:	bd30      	pop	{r4, r5, pc}
 80032f4:	40012c00 	.word	0x40012c00

080032f8 <HAL_TIMEx_ConfigBreakDeadTime>:
 80032f8:	f890 303c 	ldrb.w	r3, [r0, #60]	; 0x3c
 80032fc:	2b01      	cmp	r3, #1
 80032fe:	d01f      	beq.n	8003340 <HAL_TIMEx_ConfigBreakDeadTime+0x48>
 8003300:	68cb      	ldr	r3, [r1, #12]
 8003302:	688a      	ldr	r2, [r1, #8]
 8003304:	f423 7340 	bic.w	r3, r3, #768	; 0x300
 8003308:	4313      	orrs	r3, r2
 800330a:	684a      	ldr	r2, [r1, #4]
 800330c:	f423 6380 	bic.w	r3, r3, #1024	; 0x400
 8003310:	4313      	orrs	r3, r2
 8003312:	680a      	ldr	r2, [r1, #0]
 8003314:	f423 6300 	bic.w	r3, r3, #2048	; 0x800
 8003318:	4313      	orrs	r3, r2
 800331a:	690a      	ldr	r2, [r1, #16]
 800331c:	f423 5380 	bic.w	r3, r3, #4096	; 0x1000
 8003320:	4313      	orrs	r3, r2
 8003322:	694a      	ldr	r2, [r1, #20]
 8003324:	f423 5300 	bic.w	r3, r3, #8192	; 0x2000
 8003328:	4313      	orrs	r3, r2
 800332a:	69ca      	ldr	r2, [r1, #28]
 800332c:	f423 4380 	bic.w	r3, r3, #16384	; 0x4000
 8003330:	4313      	orrs	r3, r2
 8003332:	6802      	ldr	r2, [r0, #0]
 8003334:	6453      	str	r3, [r2, #68]	; 0x44
 8003336:	2300      	movs	r3, #0
 8003338:	f880 303c 	strb.w	r3, [r0, #60]	; 0x3c
 800333c:	4618      	mov	r0, r3
 800333e:	4770      	bx	lr
 8003340:	2002      	movs	r0, #2
 8003342:	4770      	bx	lr

08003344 <sin>:
 8003344:	b530      	push	{r4, r5, lr}
 8003346:	4a20      	ldr	r2, [pc, #128]	; (80033c8 <sin+0x84>)
 8003348:	f021 4300 	bic.w	r3, r1, #2147483648	; 0x80000000
 800334c:	4293      	cmp	r3, r2
 800334e:	b087      	sub	sp, #28
 8003350:	dc06      	bgt.n	8003360 <sin+0x1c>
 8003352:	2300      	movs	r3, #0
 8003354:	2200      	movs	r2, #0
 8003356:	9300      	str	r3, [sp, #0]
 8003358:	2300      	movs	r3, #0
 800335a:	f000 fe5d 	bl	8004018 <__kernel_sin>
 800335e:	e006      	b.n	800336e <sin+0x2a>
 8003360:	4a1a      	ldr	r2, [pc, #104]	; (80033cc <sin+0x88>)
 8003362:	4293      	cmp	r3, r2
 8003364:	dd05      	ble.n	8003372 <sin+0x2e>
 8003366:	4602      	mov	r2, r0
 8003368:	460b      	mov	r3, r1
 800336a:	f7fc ffa9 	bl	80002c0 <__aeabi_dsub>
 800336e:	b007      	add	sp, #28
 8003370:	bd30      	pop	{r4, r5, pc}
 8003372:	aa02      	add	r2, sp, #8
 8003374:	f000 f858 	bl	8003428 <__ieee754_rem_pio2>
 8003378:	f000 0003 	and.w	r0, r0, #3
 800337c:	2801      	cmp	r0, #1
 800337e:	d009      	beq.n	8003394 <sin+0x50>
 8003380:	2802      	cmp	r0, #2
 8003382:	d00e      	beq.n	80033a2 <sin+0x5e>
 8003384:	b9c0      	cbnz	r0, 80033b8 <sin+0x74>
 8003386:	e9dd 0102 	ldrd	r0, r1, [sp, #8]
 800338a:	2301      	movs	r3, #1
 800338c:	9300      	str	r3, [sp, #0]
 800338e:	e9dd 2304 	ldrd	r2, r3, [sp, #16]
 8003392:	e7e2      	b.n	800335a <sin+0x16>
 8003394:	e9dd 2304 	ldrd	r2, r3, [sp, #16]
 8003398:	e9dd 0102 	ldrd	r0, r1, [sp, #8]
 800339c:	f000 fa3c 	bl	8003818 <__kernel_cos>
 80033a0:	e7e5      	b.n	800336e <sin+0x2a>
 80033a2:	2301      	movs	r3, #1
 80033a4:	e9dd 0102 	ldrd	r0, r1, [sp, #8]
 80033a8:	9300      	str	r3, [sp, #0]
 80033aa:	e9dd 2304 	ldrd	r2, r3, [sp, #16]
 80033ae:	f000 fe33 	bl	8004018 <__kernel_sin>
 80033b2:	f101 4100 	add.w	r1, r1, #2147483648	; 0x80000000
 80033b6:	e7da      	b.n	800336e <sin+0x2a>
 80033b8:	e9dd 2304 	ldrd	r2, r3, [sp, #16]
 80033bc:	e9dd 0102 	ldrd	r0, r1, [sp, #8]
 80033c0:	f000 fa2a 	bl	8003818 <__kernel_cos>
 80033c4:	e7f5      	b.n	80033b2 <sin+0x6e>
 80033c6:	bf00      	nop
 80033c8:	3fe921fb 	.word	0x3fe921fb
 80033cc:	7fefffff 	.word	0x7fefffff

080033d0 <tan>:
 80033d0:	b530      	push	{r4, r5, lr}
 80033d2:	4a12      	ldr	r2, [pc, #72]	; (800341c <tan+0x4c>)
 80033d4:	f021 4300 	bic.w	r3, r1, #2147483648	; 0x80000000
 80033d8:	4293      	cmp	r3, r2
 80033da:	b087      	sub	sp, #28
 80033dc:	dc06      	bgt.n	80033ec <tan+0x1c>
 80033de:	2301      	movs	r3, #1
 80033e0:	2200      	movs	r2, #0
 80033e2:	9300      	str	r3, [sp, #0]
 80033e4:	2300      	movs	r3, #0
 80033e6:	f000 fecf 	bl	8004188 <__kernel_tan>
 80033ea:	e006      	b.n	80033fa <tan+0x2a>
 80033ec:	4a0c      	ldr	r2, [pc, #48]	; (8003420 <tan+0x50>)
 80033ee:	4293      	cmp	r3, r2
 80033f0:	dd05      	ble.n	80033fe <tan+0x2e>
 80033f2:	4602      	mov	r2, r0
 80033f4:	460b      	mov	r3, r1
 80033f6:	f7fc ff63 	bl	80002c0 <__aeabi_dsub>
 80033fa:	b007      	add	sp, #28
 80033fc:	bd30      	pop	{r4, r5, pc}
 80033fe:	aa02      	add	r2, sp, #8
 8003400:	f000 f812 	bl	8003428 <__ieee754_rem_pio2>
 8003404:	e9dd 2304 	ldrd	r2, r3, [sp, #16]
 8003408:	0040      	lsls	r0, r0, #1
 800340a:	f000 0002 	and.w	r0, r0, #2
 800340e:	f1c0 0001 	rsb	r0, r0, #1
 8003412:	9000      	str	r0, [sp, #0]
 8003414:	e9dd 0102 	ldrd	r0, r1, [sp, #8]
 8003418:	e7e5      	b.n	80033e6 <tan+0x16>
 800341a:	bf00      	nop
 800341c:	3fe921fb 	.word	0x3fe921fb
 8003420:	7fefffff 	.word	0x7fefffff
 8003424:	00000000 	.word	0x00000000

08003428 <__ieee754_rem_pio2>:
 8003428:	e92d 4ff0 	stmdb	sp!, {r4, r5, r6, r7, r8, r9, sl, fp, lr}
 800342c:	4614      	mov	r4, r2
 800342e:	4ac4      	ldr	r2, [pc, #784]	; (8003740 <__ieee754_rem_pio2+0x318>)
 8003430:	f021 4a00 	bic.w	sl, r1, #2147483648	; 0x80000000
 8003434:	b08d      	sub	sp, #52	; 0x34
 8003436:	4592      	cmp	sl, r2
 8003438:	9104      	str	r1, [sp, #16]
 800343a:	dc07      	bgt.n	800344c <__ieee754_rem_pio2+0x24>
 800343c:	2200      	movs	r2, #0
 800343e:	2300      	movs	r3, #0
 8003440:	e9c4 0100 	strd	r0, r1, [r4]
 8003444:	e9c4 2302 	strd	r2, r3, [r4, #8]
 8003448:	2500      	movs	r5, #0
 800344a:	e024      	b.n	8003496 <__ieee754_rem_pio2+0x6e>
 800344c:	4abd      	ldr	r2, [pc, #756]	; (8003744 <__ieee754_rem_pio2+0x31c>)
 800344e:	4592      	cmp	sl, r2
 8003450:	dc72      	bgt.n	8003538 <__ieee754_rem_pio2+0x110>
 8003452:	9b04      	ldr	r3, [sp, #16]
 8003454:	4dbc      	ldr	r5, [pc, #752]	; (8003748 <__ieee754_rem_pio2+0x320>)
 8003456:	2b00      	cmp	r3, #0
 8003458:	a3ab      	add	r3, pc, #684	; (adr r3, 8003708 <__ieee754_rem_pio2+0x2e0>)
 800345a:	e9d3 2300 	ldrd	r2, r3, [r3]
 800345e:	dd36      	ble.n	80034ce <__ieee754_rem_pio2+0xa6>
 8003460:	f7fc ff2e 	bl	80002c0 <__aeabi_dsub>
 8003464:	45aa      	cmp	sl, r5
 8003466:	4606      	mov	r6, r0
 8003468:	460f      	mov	r7, r1
 800346a:	d018      	beq.n	800349e <__ieee754_rem_pio2+0x76>
 800346c:	a3a8      	add	r3, pc, #672	; (adr r3, 8003710 <__ieee754_rem_pio2+0x2e8>)
 800346e:	e9d3 2300 	ldrd	r2, r3, [r3]
 8003472:	f7fc ff25 	bl	80002c0 <__aeabi_dsub>
 8003476:	4602      	mov	r2, r0
 8003478:	460b      	mov	r3, r1
 800347a:	4630      	mov	r0, r6
 800347c:	e9c4 2300 	strd	r2, r3, [r4]
 8003480:	4639      	mov	r1, r7
 8003482:	f7fc ff1d 	bl	80002c0 <__aeabi_dsub>
 8003486:	a3a2      	add	r3, pc, #648	; (adr r3, 8003710 <__ieee754_rem_pio2+0x2e8>)
 8003488:	e9d3 2300 	ldrd	r2, r3, [r3]
 800348c:	f7fc ff18 	bl	80002c0 <__aeabi_dsub>
 8003490:	2501      	movs	r5, #1
 8003492:	e9c4 0102 	strd	r0, r1, [r4, #8]
 8003496:	4628      	mov	r0, r5
 8003498:	b00d      	add	sp, #52	; 0x34
 800349a:	e8bd 8ff0 	ldmia.w	sp!, {r4, r5, r6, r7, r8, r9, sl, fp, pc}
 800349e:	a39e      	add	r3, pc, #632	; (adr r3, 8003718 <__ieee754_rem_pio2+0x2f0>)
 80034a0:	e9d3 2300 	ldrd	r2, r3, [r3]
 80034a4:	f7fc ff0c 	bl	80002c0 <__aeabi_dsub>
 80034a8:	a39d      	add	r3, pc, #628	; (adr r3, 8003720 <__ieee754_rem_pio2+0x2f8>)
 80034aa:	e9d3 2300 	ldrd	r2, r3, [r3]
 80034ae:	4606      	mov	r6, r0
 80034b0:	460f      	mov	r7, r1
 80034b2:	f7fc ff05 	bl	80002c0 <__aeabi_dsub>
 80034b6:	4602      	mov	r2, r0
 80034b8:	460b      	mov	r3, r1
 80034ba:	4630      	mov	r0, r6
 80034bc:	e9c4 2300 	strd	r2, r3, [r4]
 80034c0:	4639      	mov	r1, r7
 80034c2:	f7fc fefd 	bl	80002c0 <__aeabi_dsub>
 80034c6:	a396      	add	r3, pc, #600	; (adr r3, 8003720 <__ieee754_rem_pio2+0x2f8>)
 80034c8:	e9d3 2300 	ldrd	r2, r3, [r3]
 80034cc:	e7de      	b.n	800348c <__ieee754_rem_pio2+0x64>
 80034ce:	f7fc fef9 	bl	80002c4 <__adddf3>
 80034d2:	45aa      	cmp	sl, r5
 80034d4:	4606      	mov	r6, r0
 80034d6:	460f      	mov	r7, r1
 80034d8:	d016      	beq.n	8003508 <__ieee754_rem_pio2+0xe0>
 80034da:	a38d      	add	r3, pc, #564	; (adr r3, 8003710 <__ieee754_rem_pio2+0x2e8>)
 80034dc:	e9d3 2300 	ldrd	r2, r3, [r3]
 80034e0:	f7fc fef0 	bl	80002c4 <__adddf3>
 80034e4:	4602      	mov	r2, r0
 80034e6:	460b      	mov	r3, r1
 80034e8:	4630      	mov	r0, r6
 80034ea:	e9c4 2300 	strd	r2, r3, [r4]
 80034ee:	4639      	mov	r1, r7
 80034f0:	f7fc fee6 	bl	80002c0 <__aeabi_dsub>
 80034f4:	a386      	add	r3, pc, #536	; (adr r3, 8003710 <__ieee754_rem_pio2+0x2e8>)
 80034f6:	e9d3 2300 	ldrd	r2, r3, [r3]
 80034fa:	f7fc fee3 	bl	80002c4 <__adddf3>
 80034fe:	f04f 35ff 	mov.w	r5, #4294967295
 8003502:	e9c4 0102 	strd	r0, r1, [r4, #8]
 8003506:	e7c6      	b.n	8003496 <__ieee754_rem_pio2+0x6e>
 8003508:	a383      	add	r3, pc, #524	; (adr r3, 8003718 <__ieee754_rem_pio2+0x2f0>)
 800350a:	e9d3 2300 	ldrd	r2, r3, [r3]
 800350e:	f7fc fed9 	bl	80002c4 <__adddf3>
 8003512:	a383      	add	r3, pc, #524	; (adr r3, 8003720 <__ieee754_rem_pio2+0x2f8>)
 8003514:	e9d3 2300 	ldrd	r2, r3, [r3]
 8003518:	4606      	mov	r6, r0
 800351a:	460f      	mov	r7, r1
 800351c:	f7fc fed2 	bl	80002c4 <__adddf3>
 8003520:	4602      	mov	r2, r0
 8003522:	460b      	mov	r3, r1
 8003524:	4630      	mov	r0, r6
 8003526:	e9c4 2300 	strd	r2, r3, [r4]
 800352a:	4639      	mov	r1, r7
 800352c:	f7fc fec8 	bl	80002c0 <__aeabi_dsub>
 8003530:	a37b      	add	r3, pc, #492	; (adr r3, 8003720 <__ieee754_rem_pio2+0x2f8>)
 8003532:	e9d3 2300 	ldrd	r2, r3, [r3]
 8003536:	e7e0      	b.n	80034fa <__ieee754_rem_pio2+0xd2>
 8003538:	4a84      	ldr	r2, [pc, #528]	; (800374c <__ieee754_rem_pio2+0x324>)
 800353a:	4592      	cmp	sl, r2
 800353c:	f300 80d5 	bgt.w	80036ea <__ieee754_rem_pio2+0x2c2>
 8003540:	f001 f81e 	bl	8004580 <fabs>
 8003544:	a378      	add	r3, pc, #480	; (adr r3, 8003728 <__ieee754_rem_pio2+0x300>)
 8003546:	e9d3 2300 	ldrd	r2, r3, [r3]
 800354a:	4606      	mov	r6, r0
 800354c:	460f      	mov	r7, r1
 800354e:	f7fd f86f 	bl	8000630 <__aeabi_dmul>
 8003552:	2200      	movs	r2, #0
 8003554:	4b7e      	ldr	r3, [pc, #504]	; (8003750 <__ieee754_rem_pio2+0x328>)
 8003556:	f7fc feb5 	bl	80002c4 <__adddf3>
 800355a:	f7fd fb03 	bl	8000b64 <__aeabi_d2iz>
 800355e:	4605      	mov	r5, r0
 8003560:	f7fc fffc 	bl	800055c <__aeabi_i2d>
 8003564:	4602      	mov	r2, r0
 8003566:	460b      	mov	r3, r1
 8003568:	e9cd 2302 	strd	r2, r3, [sp, #8]
 800356c:	a366      	add	r3, pc, #408	; (adr r3, 8003708 <__ieee754_rem_pio2+0x2e0>)
 800356e:	e9d3 2300 	ldrd	r2, r3, [r3]
 8003572:	f7fd f85d 	bl	8000630 <__aeabi_dmul>
 8003576:	4602      	mov	r2, r0
 8003578:	460b      	mov	r3, r1
 800357a:	4630      	mov	r0, r6
 800357c:	4639      	mov	r1, r7
 800357e:	f7fc fe9f 	bl	80002c0 <__aeabi_dsub>
 8003582:	a363      	add	r3, pc, #396	; (adr r3, 8003710 <__ieee754_rem_pio2+0x2e8>)
 8003584:	e9d3 2300 	ldrd	r2, r3, [r3]
 8003588:	4680      	mov	r8, r0
 800358a:	4689      	mov	r9, r1
 800358c:	e9dd 0102 	ldrd	r0, r1, [sp, #8]
 8003590:	f7fd f84e 	bl	8000630 <__aeabi_dmul>
 8003594:	2d1f      	cmp	r5, #31
 8003596:	4606      	mov	r6, r0
 8003598:	460f      	mov	r7, r1
 800359a:	dc0e      	bgt.n	80035ba <__ieee754_rem_pio2+0x192>
 800359c:	4b6d      	ldr	r3, [pc, #436]	; (8003754 <__ieee754_rem_pio2+0x32c>)
 800359e:	1e6a      	subs	r2, r5, #1
 80035a0:	f853 3022 	ldr.w	r3, [r3, r2, lsl #2]
 80035a4:	4553      	cmp	r3, sl
 80035a6:	d008      	beq.n	80035ba <__ieee754_rem_pio2+0x192>
 80035a8:	4632      	mov	r2, r6
 80035aa:	463b      	mov	r3, r7
 80035ac:	4640      	mov	r0, r8
 80035ae:	4649      	mov	r1, r9
 80035b0:	f7fc fe86 	bl	80002c0 <__aeabi_dsub>
 80035b4:	e9c4 0100 	strd	r0, r1, [r4]
 80035b8:	e013      	b.n	80035e2 <__ieee754_rem_pio2+0x1ba>
 80035ba:	463b      	mov	r3, r7
 80035bc:	4632      	mov	r2, r6
 80035be:	4640      	mov	r0, r8
 80035c0:	4649      	mov	r1, r9
 80035c2:	f7fc fe7d 	bl	80002c0 <__aeabi_dsub>
 80035c6:	ea4f 532a 	mov.w	r3, sl, asr #20
 80035ca:	9305      	str	r3, [sp, #20]
 80035cc:	f3c1 530a 	ubfx	r3, r1, #20, #11
 80035d0:	ebc3 5a1a 	rsb	sl, r3, sl, lsr #20
 80035d4:	f1ba 0f10 	cmp.w	sl, #16
 80035d8:	dc1f      	bgt.n	800361a <__ieee754_rem_pio2+0x1f2>
 80035da:	4602      	mov	r2, r0
 80035dc:	460b      	mov	r3, r1
 80035de:	e9c4 2300 	strd	r2, r3, [r4]
 80035e2:	e9d4 2a00 	ldrd	r2, sl, [r4]
 80035e6:	4640      	mov	r0, r8
 80035e8:	4653      	mov	r3, sl
 80035ea:	4649      	mov	r1, r9
 80035ec:	f7fc fe68 	bl	80002c0 <__aeabi_dsub>
 80035f0:	4632      	mov	r2, r6
 80035f2:	463b      	mov	r3, r7
 80035f4:	f7fc fe64 	bl	80002c0 <__aeabi_dsub>
 80035f8:	460b      	mov	r3, r1
 80035fa:	e9c4 0102 	strd	r0, r1, [r4, #8]
 80035fe:	9904      	ldr	r1, [sp, #16]
 8003600:	4602      	mov	r2, r0
 8003602:	2900      	cmp	r1, #0
 8003604:	f6bf af47 	bge.w	8003496 <__ieee754_rem_pio2+0x6e>
 8003608:	f10a 4100 	add.w	r1, sl, #2147483648	; 0x80000000
 800360c:	e9c4 1201 	strd	r1, r2, [r4, #4]
 8003610:	f103 4300 	add.w	r3, r3, #2147483648	; 0x80000000
 8003614:	60e3      	str	r3, [r4, #12]
 8003616:	426d      	negs	r5, r5
 8003618:	e73d      	b.n	8003496 <__ieee754_rem_pio2+0x6e>
 800361a:	a33f      	add	r3, pc, #252	; (adr r3, 8003718 <__ieee754_rem_pio2+0x2f0>)
 800361c:	e9d3 2300 	ldrd	r2, r3, [r3]
 8003620:	e9dd 0102 	ldrd	r0, r1, [sp, #8]
 8003624:	f7fd f804 	bl	8000630 <__aeabi_dmul>
 8003628:	4606      	mov	r6, r0
 800362a:	460f      	mov	r7, r1
 800362c:	4602      	mov	r2, r0
 800362e:	460b      	mov	r3, r1
 8003630:	4640      	mov	r0, r8
 8003632:	4649      	mov	r1, r9
 8003634:	f7fc fe44 	bl	80002c0 <__aeabi_dsub>
 8003638:	4602      	mov	r2, r0
 800363a:	460b      	mov	r3, r1
 800363c:	4682      	mov	sl, r0
 800363e:	468b      	mov	fp, r1
 8003640:	4640      	mov	r0, r8
 8003642:	4649      	mov	r1, r9
 8003644:	f7fc fe3c 	bl	80002c0 <__aeabi_dsub>
 8003648:	4632      	mov	r2, r6
 800364a:	463b      	mov	r3, r7
 800364c:	f7fc fe38 	bl	80002c0 <__aeabi_dsub>
 8003650:	a333      	add	r3, pc, #204	; (adr r3, 8003720 <__ieee754_rem_pio2+0x2f8>)
 8003652:	e9d3 2300 	ldrd	r2, r3, [r3]
 8003656:	4606      	mov	r6, r0
 8003658:	460f      	mov	r7, r1
 800365a:	e9dd 0102 	ldrd	r0, r1, [sp, #8]
 800365e:	f7fc ffe7 	bl	8000630 <__aeabi_dmul>
 8003662:	4632      	mov	r2, r6
 8003664:	463b      	mov	r3, r7
 8003666:	f7fc fe2b 	bl	80002c0 <__aeabi_dsub>
 800366a:	4602      	mov	r2, r0
 800366c:	460b      	mov	r3, r1
 800366e:	4606      	mov	r6, r0
 8003670:	460f      	mov	r7, r1
 8003672:	4650      	mov	r0, sl
 8003674:	4659      	mov	r1, fp
 8003676:	f7fc fe23 	bl	80002c0 <__aeabi_dsub>
 800367a:	9a05      	ldr	r2, [sp, #20]
 800367c:	f3c1 530a 	ubfx	r3, r1, #20, #11
 8003680:	1ad3      	subs	r3, r2, r3
 8003682:	2b31      	cmp	r3, #49	; 0x31
 8003684:	dc06      	bgt.n	8003694 <__ieee754_rem_pio2+0x26c>
 8003686:	4602      	mov	r2, r0
 8003688:	460b      	mov	r3, r1
 800368a:	46d0      	mov	r8, sl
 800368c:	46d9      	mov	r9, fp
 800368e:	e9c4 2300 	strd	r2, r3, [r4]
 8003692:	e7a6      	b.n	80035e2 <__ieee754_rem_pio2+0x1ba>
 8003694:	a326      	add	r3, pc, #152	; (adr r3, 8003730 <__ieee754_rem_pio2+0x308>)
 8003696:	e9d3 2300 	ldrd	r2, r3, [r3]
 800369a:	e9dd 0102 	ldrd	r0, r1, [sp, #8]
 800369e:	f7fc ffc7 	bl	8000630 <__aeabi_dmul>
 80036a2:	4606      	mov	r6, r0
 80036a4:	460f      	mov	r7, r1
 80036a6:	4602      	mov	r2, r0
 80036a8:	460b      	mov	r3, r1
 80036aa:	4650      	mov	r0, sl
 80036ac:	4659      	mov	r1, fp
 80036ae:	f7fc fe07 	bl	80002c0 <__aeabi_dsub>
 80036b2:	4602      	mov	r2, r0
 80036b4:	460b      	mov	r3, r1
 80036b6:	4680      	mov	r8, r0
 80036b8:	4689      	mov	r9, r1
 80036ba:	4650      	mov	r0, sl
 80036bc:	4659      	mov	r1, fp
 80036be:	f7fc fdff 	bl	80002c0 <__aeabi_dsub>
 80036c2:	4632      	mov	r2, r6
 80036c4:	463b      	mov	r3, r7
 80036c6:	f7fc fdfb 	bl	80002c0 <__aeabi_dsub>
 80036ca:	a31b      	add	r3, pc, #108	; (adr r3, 8003738 <__ieee754_rem_pio2+0x310>)
 80036cc:	e9d3 2300 	ldrd	r2, r3, [r3]
 80036d0:	4606      	mov	r6, r0
 80036d2:	460f      	mov	r7, r1
 80036d4:	e9dd 0102 	ldrd	r0, r1, [sp, #8]
 80036d8:	f7fc ffaa 	bl	8000630 <__aeabi_dmul>
 80036dc:	4632      	mov	r2, r6
 80036de:	463b      	mov	r3, r7
 80036e0:	f7fc fdee 	bl	80002c0 <__aeabi_dsub>
 80036e4:	4606      	mov	r6, r0
 80036e6:	460f      	mov	r7, r1
 80036e8:	e75e      	b.n	80035a8 <__ieee754_rem_pio2+0x180>
 80036ea:	4a1b      	ldr	r2, [pc, #108]	; (8003758 <__ieee754_rem_pio2+0x330>)
 80036ec:	4592      	cmp	sl, r2
 80036ee:	dd35      	ble.n	800375c <__ieee754_rem_pio2+0x334>
 80036f0:	4602      	mov	r2, r0
 80036f2:	460b      	mov	r3, r1
 80036f4:	f7fc fde4 	bl	80002c0 <__aeabi_dsub>
 80036f8:	e9c4 0102 	strd	r0, r1, [r4, #8]
 80036fc:	e9c4 0100 	strd	r0, r1, [r4]
 8003700:	e6a2      	b.n	8003448 <__ieee754_rem_pio2+0x20>
 8003702:	bf00      	nop
 8003704:	f3af 8000 	nop.w
 8003708:	54400000 	.word	0x54400000
 800370c:	3ff921fb 	.word	0x3ff921fb
 8003710:	1a626331 	.word	0x1a626331
 8003714:	3dd0b461 	.word	0x3dd0b461
 8003718:	1a600000 	.word	0x1a600000
 800371c:	3dd0b461 	.word	0x3dd0b461
 8003720:	2e037073 	.word	0x2e037073
 8003724:	3ba3198a 	.word	0x3ba3198a
 8003728:	6dc9c883 	.word	0x6dc9c883
 800372c:	3fe45f30 	.word	0x3fe45f30
 8003730:	2e000000 	.word	0x2e000000
 8003734:	3ba3198a 	.word	0x3ba3198a
 8003738:	252049c1 	.word	0x252049c1
 800373c:	397b839a 	.word	0x397b839a
 8003740:	3fe921fb 	.word	0x3fe921fb
 8003744:	4002d97b 	.word	0x4002d97b
 8003748:	3ff921fb 	.word	0x3ff921fb
 800374c:	413921fb 	.word	0x413921fb
 8003750:	3fe00000 	.word	0x3fe00000
 8003754:	0800481c 	.word	0x0800481c
 8003758:	7fefffff 	.word	0x7fefffff
 800375c:	ea4f 552a 	mov.w	r5, sl, asr #20
 8003760:	f2a5 4516 	subw	r5, r5, #1046	; 0x416
 8003764:	ebaa 5105 	sub.w	r1, sl, r5, lsl #20
 8003768:	460f      	mov	r7, r1
 800376a:	4606      	mov	r6, r0
 800376c:	f7fd f9fa 	bl	8000b64 <__aeabi_d2iz>
 8003770:	f7fc fef4 	bl	800055c <__aeabi_i2d>
 8003774:	4602      	mov	r2, r0
 8003776:	460b      	mov	r3, r1
 8003778:	4630      	mov	r0, r6
 800377a:	4639      	mov	r1, r7
 800377c:	e9cd 2306 	strd	r2, r3, [sp, #24]
 8003780:	f7fc fd9e 	bl	80002c0 <__aeabi_dsub>
 8003784:	2200      	movs	r2, #0
 8003786:	4b22      	ldr	r3, [pc, #136]	; (8003810 <__ieee754_rem_pio2+0x3e8>)
 8003788:	f7fc ff52 	bl	8000630 <__aeabi_dmul>
 800378c:	460f      	mov	r7, r1
 800378e:	4606      	mov	r6, r0
 8003790:	f7fd f9e8 	bl	8000b64 <__aeabi_d2iz>
 8003794:	f7fc fee2 	bl	800055c <__aeabi_i2d>
 8003798:	4602      	mov	r2, r0
 800379a:	460b      	mov	r3, r1
 800379c:	4630      	mov	r0, r6
 800379e:	4639      	mov	r1, r7
 80037a0:	e9cd 2308 	strd	r2, r3, [sp, #32]
 80037a4:	f7fc fd8c 	bl	80002c0 <__aeabi_dsub>
 80037a8:	2200      	movs	r2, #0
 80037aa:	4b19      	ldr	r3, [pc, #100]	; (8003810 <__ieee754_rem_pio2+0x3e8>)
 80037ac:	f7fc ff40 	bl	8000630 <__aeabi_dmul>
 80037b0:	f04f 0803 	mov.w	r8, #3
 80037b4:	2600      	movs	r6, #0
 80037b6:	2700      	movs	r7, #0
 80037b8:	e9cd 010a 	strd	r0, r1, [sp, #40]	; 0x28
 80037bc:	f10d 0928 	add.w	r9, sp, #40	; 0x28
 80037c0:	4632      	mov	r2, r6
 80037c2:	e879 0102 	ldrd	r0, r1, [r9], #-8
 80037c6:	463b      	mov	r3, r7
 80037c8:	46c2      	mov	sl, r8
 80037ca:	f108 38ff 	add.w	r8, r8, #4294967295
 80037ce:	f7fd f997 	bl	8000b00 <__aeabi_dcmpeq>
 80037d2:	2800      	cmp	r0, #0
 80037d4:	d1f4      	bne.n	80037c0 <__ieee754_rem_pio2+0x398>
 80037d6:	4b0f      	ldr	r3, [pc, #60]	; (8003814 <__ieee754_rem_pio2+0x3ec>)
 80037d8:	462a      	mov	r2, r5
 80037da:	9301      	str	r3, [sp, #4]
 80037dc:	2302      	movs	r3, #2
 80037de:	4621      	mov	r1, r4
 80037e0:	9300      	str	r3, [sp, #0]
 80037e2:	a806      	add	r0, sp, #24
 80037e4:	4653      	mov	r3, sl
 80037e6:	f000 f8d5 	bl	8003994 <__kernel_rem_pio2>
 80037ea:	9b04      	ldr	r3, [sp, #16]
 80037ec:	4605      	mov	r5, r0
 80037ee:	2b00      	cmp	r3, #0
 80037f0:	f6bf ae51 	bge.w	8003496 <__ieee754_rem_pio2+0x6e>
 80037f4:	e9d4 2100 	ldrd	r2, r1, [r4]
 80037f8:	f101 4300 	add.w	r3, r1, #2147483648	; 0x80000000
 80037fc:	e9c4 2300 	strd	r2, r3, [r4]
 8003800:	e9d4 2102 	ldrd	r2, r1, [r4, #8]
 8003804:	f101 4300 	add.w	r3, r1, #2147483648	; 0x80000000
 8003808:	e9c4 2302 	strd	r2, r3, [r4, #8]
 800380c:	e703      	b.n	8003616 <__ieee754_rem_pio2+0x1ee>
 800380e:	bf00      	nop
 8003810:	41700000 	.word	0x41700000
 8003814:	0800489c 	.word	0x0800489c

08003818 <__kernel_cos>:
 8003818:	e92d 4ff7 	stmdb	sp!, {r0, r1, r2, r4, r5, r6, r7, r8, r9, sl, fp, lr}
 800381c:	f021 4600 	bic.w	r6, r1, #2147483648	; 0x80000000
 8003820:	f1b6 5f79 	cmp.w	r6, #1044381696	; 0x3e400000
 8003824:	4680      	mov	r8, r0
 8003826:	460f      	mov	r7, r1
 8003828:	e9cd 2300 	strd	r2, r3, [sp]
 800382c:	da04      	bge.n	8003838 <__kernel_cos+0x20>
 800382e:	f7fd f999 	bl	8000b64 <__aeabi_d2iz>
 8003832:	2800      	cmp	r0, #0
 8003834:	f000 8086 	beq.w	8003944 <__kernel_cos+0x12c>
 8003838:	4642      	mov	r2, r8
 800383a:	463b      	mov	r3, r7
 800383c:	4640      	mov	r0, r8
 800383e:	4639      	mov	r1, r7
 8003840:	f7fc fef6 	bl	8000630 <__aeabi_dmul>
 8003844:	2200      	movs	r2, #0
 8003846:	4b4e      	ldr	r3, [pc, #312]	; (8003980 <__kernel_cos+0x168>)
 8003848:	4604      	mov	r4, r0
 800384a:	460d      	mov	r5, r1
 800384c:	f7fc fef0 	bl	8000630 <__aeabi_dmul>
 8003850:	a33f      	add	r3, pc, #252	; (adr r3, 8003950 <__kernel_cos+0x138>)
 8003852:	e9d3 2300 	ldrd	r2, r3, [r3]
 8003856:	4682      	mov	sl, r0
 8003858:	468b      	mov	fp, r1
 800385a:	4620      	mov	r0, r4
 800385c:	4629      	mov	r1, r5
 800385e:	f7fc fee7 	bl	8000630 <__aeabi_dmul>
 8003862:	a33d      	add	r3, pc, #244	; (adr r3, 8003958 <__kernel_cos+0x140>)
 8003864:	e9d3 2300 	ldrd	r2, r3, [r3]
 8003868:	f7fc fd2c 	bl	80002c4 <__adddf3>
 800386c:	4622      	mov	r2, r4
 800386e:	462b      	mov	r3, r5
 8003870:	f7fc fede 	bl	8000630 <__aeabi_dmul>
 8003874:	a33a      	add	r3, pc, #232	; (adr r3, 8003960 <__kernel_cos+0x148>)
 8003876:	e9d3 2300 	ldrd	r2, r3, [r3]
 800387a:	f7fc fd21 	bl	80002c0 <__aeabi_dsub>
 800387e:	4622      	mov	r2, r4
 8003880:	462b      	mov	r3, r5
 8003882:	f7fc fed5 	bl	8000630 <__aeabi_dmul>
 8003886:	a338      	add	r3, pc, #224	; (adr r3, 8003968 <__kernel_cos+0x150>)
 8003888:	e9d3 2300 	ldrd	r2, r3, [r3]
 800388c:	f7fc fd1a 	bl	80002c4 <__adddf3>
 8003890:	4622      	mov	r2, r4
 8003892:	462b      	mov	r3, r5
 8003894:	f7fc fecc 	bl	8000630 <__aeabi_dmul>
 8003898:	a335      	add	r3, pc, #212	; (adr r3, 8003970 <__kernel_cos+0x158>)
 800389a:	e9d3 2300 	ldrd	r2, r3, [r3]
 800389e:	f7fc fd0f 	bl	80002c0 <__aeabi_dsub>
 80038a2:	4622      	mov	r2, r4
 80038a4:	462b      	mov	r3, r5
 80038a6:	f7fc fec3 	bl	8000630 <__aeabi_dmul>
 80038aa:	a333      	add	r3, pc, #204	; (adr r3, 8003978 <__kernel_cos+0x160>)
 80038ac:	e9d3 2300 	ldrd	r2, r3, [r3]
 80038b0:	f7fc fd08 	bl	80002c4 <__adddf3>
 80038b4:	4622      	mov	r2, r4
 80038b6:	462b      	mov	r3, r5
 80038b8:	f7fc feba 	bl	8000630 <__aeabi_dmul>
 80038bc:	4622      	mov	r2, r4
 80038be:	462b      	mov	r3, r5
 80038c0:	f7fc feb6 	bl	8000630 <__aeabi_dmul>
 80038c4:	e9dd 2300 	ldrd	r2, r3, [sp]
 80038c8:	4604      	mov	r4, r0
 80038ca:	460d      	mov	r5, r1
 80038cc:	4640      	mov	r0, r8
 80038ce:	4639      	mov	r1, r7
 80038d0:	f7fc feae 	bl	8000630 <__aeabi_dmul>
 80038d4:	460b      	mov	r3, r1
 80038d6:	4602      	mov	r2, r0
 80038d8:	4629      	mov	r1, r5
 80038da:	4620      	mov	r0, r4
 80038dc:	f7fc fcf0 	bl	80002c0 <__aeabi_dsub>
 80038e0:	4b28      	ldr	r3, [pc, #160]	; (8003984 <__kernel_cos+0x16c>)
 80038e2:	4680      	mov	r8, r0
 80038e4:	429e      	cmp	r6, r3
 80038e6:	4689      	mov	r9, r1
 80038e8:	dc0e      	bgt.n	8003908 <__kernel_cos+0xf0>
 80038ea:	4602      	mov	r2, r0
 80038ec:	460b      	mov	r3, r1
 80038ee:	4650      	mov	r0, sl
 80038f0:	4659      	mov	r1, fp
 80038f2:	f7fc fce5 	bl	80002c0 <__aeabi_dsub>
 80038f6:	4602      	mov	r2, r0
 80038f8:	2000      	movs	r0, #0
 80038fa:	460b      	mov	r3, r1
 80038fc:	4922      	ldr	r1, [pc, #136]	; (8003988 <__kernel_cos+0x170>)
 80038fe:	f7fc fcdf 	bl	80002c0 <__aeabi_dsub>
 8003902:	b003      	add	sp, #12
 8003904:	e8bd 8ff0 	ldmia.w	sp!, {r4, r5, r6, r7, r8, r9, sl, fp, pc}
 8003908:	2400      	movs	r4, #0
 800390a:	4b20      	ldr	r3, [pc, #128]	; (800398c <__kernel_cos+0x174>)
 800390c:	4622      	mov	r2, r4
 800390e:	429e      	cmp	r6, r3
 8003910:	bfcc      	ite	gt
 8003912:	4d1f      	ldrgt	r5, [pc, #124]	; (8003990 <__kernel_cos+0x178>)
 8003914:	f5a6 1500 	suble.w	r5, r6, #2097152	; 0x200000
 8003918:	462b      	mov	r3, r5
 800391a:	2000      	movs	r0, #0
 800391c:	491a      	ldr	r1, [pc, #104]	; (8003988 <__kernel_cos+0x170>)
 800391e:	f7fc fccf 	bl	80002c0 <__aeabi_dsub>
 8003922:	4622      	mov	r2, r4
 8003924:	4606      	mov	r6, r0
 8003926:	460f      	mov	r7, r1
 8003928:	462b      	mov	r3, r5
 800392a:	4650      	mov	r0, sl
 800392c:	4659      	mov	r1, fp
 800392e:	f7fc fcc7 	bl	80002c0 <__aeabi_dsub>
 8003932:	4642      	mov	r2, r8
 8003934:	464b      	mov	r3, r9
 8003936:	f7fc fcc3 	bl	80002c0 <__aeabi_dsub>
 800393a:	4602      	mov	r2, r0
 800393c:	460b      	mov	r3, r1
 800393e:	4630      	mov	r0, r6
 8003940:	4639      	mov	r1, r7
 8003942:	e7dc      	b.n	80038fe <__kernel_cos+0xe6>
 8003944:	2000      	movs	r0, #0
 8003946:	4910      	ldr	r1, [pc, #64]	; (8003988 <__kernel_cos+0x170>)
 8003948:	e7db      	b.n	8003902 <__kernel_cos+0xea>
 800394a:	bf00      	nop
 800394c:	f3af 8000 	nop.w
 8003950:	be8838d4 	.word	0xbe8838d4
 8003954:	bda8fae9 	.word	0xbda8fae9
 8003958:	bdb4b1c4 	.word	0xbdb4b1c4
 800395c:	3e21ee9e 	.word	0x3e21ee9e
 8003960:	809c52ad 	.word	0x809c52ad
 8003964:	3e927e4f 	.word	0x3e927e4f
 8003968:	19cb1590 	.word	0x19cb1590
 800396c:	3efa01a0 	.word	0x3efa01a0
 8003970:	16c15177 	.word	0x16c15177
 8003974:	3f56c16c 	.word	0x3f56c16c
 8003978:	5555554c 	.word	0x5555554c
 800397c:	3fa55555 	.word	0x3fa55555
 8003980:	3fe00000 	.word	0x3fe00000
 8003984:	3fd33332 	.word	0x3fd33332
 8003988:	3ff00000 	.word	0x3ff00000
 800398c:	3fe90000 	.word	0x3fe90000
 8003990:	3fd20000 	.word	0x3fd20000

08003994 <__kernel_rem_pio2>:
 8003994:	e92d 4ff0 	stmdb	sp!, {r4, r5, r6, r7, r8, r9, sl, fp, lr}
 8003998:	f5ad 7d19 	sub.w	sp, sp, #612	; 0x264
 800399c:	9308      	str	r3, [sp, #32]
 800399e:	9106      	str	r1, [sp, #24]
 80039a0:	4bb6      	ldr	r3, [pc, #728]	; (8003c7c <__kernel_rem_pio2+0x2e8>)
 80039a2:	99a2      	ldr	r1, [sp, #648]	; 0x288
 80039a4:	f112 0f14 	cmn.w	r2, #20
 80039a8:	f853 3021 	ldr.w	r3, [r3, r1, lsl #2]
 80039ac:	bfa8      	it	ge
 80039ae:	1ed4      	subge	r4, r2, #3
 80039b0:	9302      	str	r3, [sp, #8]
 80039b2:	9b08      	ldr	r3, [sp, #32]
 80039b4:	bfb8      	it	lt
 80039b6:	2400      	movlt	r4, #0
 80039b8:	f103 33ff 	add.w	r3, r3, #4294967295
 80039bc:	9307      	str	r3, [sp, #28]
 80039be:	bfa4      	itt	ge
 80039c0:	2318      	movge	r3, #24
 80039c2:	fb94 f4f3 	sdivge	r4, r4, r3
 80039c6:	f06f 0317 	mvn.w	r3, #23
 80039ca:	fb04 3303 	mla	r3, r4, r3, r3
 80039ce:	eb03 0b02 	add.w	fp, r3, r2
 80039d2:	9a07      	ldr	r2, [sp, #28]
 80039d4:	9b02      	ldr	r3, [sp, #8]
 80039d6:	1aa7      	subs	r7, r4, r2
 80039d8:	eb03 0802 	add.w	r8, r3, r2
 80039dc:	9ba3      	ldr	r3, [sp, #652]	; 0x28c
 80039de:	2500      	movs	r5, #0
 80039e0:	eb03 0987 	add.w	r9, r3, r7, lsl #2
 80039e4:	2200      	movs	r2, #0
 80039e6:	2300      	movs	r3, #0
 80039e8:	9009      	str	r0, [sp, #36]	; 0x24
 80039ea:	ae20      	add	r6, sp, #128	; 0x80
 80039ec:	4545      	cmp	r5, r8
 80039ee:	dd14      	ble.n	8003a1a <__kernel_rem_pio2+0x86>
 80039f0:	f04f 0800 	mov.w	r8, #0
 80039f4:	9a08      	ldr	r2, [sp, #32]
 80039f6:	ab20      	add	r3, sp, #128	; 0x80
 80039f8:	eb03 05c2 	add.w	r5, r3, r2, lsl #3
 80039fc:	f50d 7ae0 	add.w	sl, sp, #448	; 0x1c0
 8003a00:	9b02      	ldr	r3, [sp, #8]
 8003a02:	4598      	cmp	r8, r3
 8003a04:	dc35      	bgt.n	8003a72 <__kernel_rem_pio2+0xde>
 8003a06:	9b09      	ldr	r3, [sp, #36]	; 0x24
 8003a08:	2200      	movs	r2, #0
 8003a0a:	f1a3 0908 	sub.w	r9, r3, #8
 8003a0e:	2300      	movs	r3, #0
 8003a10:	462f      	mov	r7, r5
 8003a12:	2600      	movs	r6, #0
 8003a14:	e9cd 2300 	strd	r2, r3, [sp]
 8003a18:	e01f      	b.n	8003a5a <__kernel_rem_pio2+0xc6>
 8003a1a:	42ef      	cmn	r7, r5
 8003a1c:	d40b      	bmi.n	8003a36 <__kernel_rem_pio2+0xa2>
 8003a1e:	f859 0025 	ldr.w	r0, [r9, r5, lsl #2]
 8003a22:	e9cd 2300 	strd	r2, r3, [sp]
 8003a26:	f7fc fd99 	bl	800055c <__aeabi_i2d>
 8003a2a:	e9dd 2300 	ldrd	r2, r3, [sp]
 8003a2e:	e8e6 0102 	strd	r0, r1, [r6], #8
 8003a32:	3501      	adds	r5, #1
 8003a34:	e7da      	b.n	80039ec <__kernel_rem_pio2+0x58>
 8003a36:	4610      	mov	r0, r2
 8003a38:	4619      	mov	r1, r3
 8003a3a:	e7f8      	b.n	8003a2e <__kernel_rem_pio2+0x9a>
 8003a3c:	e9d7 2300 	ldrd	r2, r3, [r7]
 8003a40:	e9f9 0102 	ldrd	r0, r1, [r9, #8]!
 8003a44:	f7fc fdf4 	bl	8000630 <__aeabi_dmul>
 8003a48:	4602      	mov	r2, r0
 8003a4a:	460b      	mov	r3, r1
 8003a4c:	e9dd 0100 	ldrd	r0, r1, [sp]
 8003a50:	f7fc fc38 	bl	80002c4 <__adddf3>
 8003a54:	e9cd 0100 	strd	r0, r1, [sp]
 8003a58:	3601      	adds	r6, #1
 8003a5a:	9b07      	ldr	r3, [sp, #28]
 8003a5c:	3f08      	subs	r7, #8
 8003a5e:	429e      	cmp	r6, r3
 8003a60:	ddec      	ble.n	8003a3c <__kernel_rem_pio2+0xa8>
 8003a62:	e9dd 2300 	ldrd	r2, r3, [sp]
 8003a66:	f108 0801 	add.w	r8, r8, #1
 8003a6a:	e8ea 2302 	strd	r2, r3, [sl], #8
 8003a6e:	3508      	adds	r5, #8
 8003a70:	e7c6      	b.n	8003a00 <__kernel_rem_pio2+0x6c>
 8003a72:	9b02      	ldr	r3, [sp, #8]
 8003a74:	aa0c      	add	r2, sp, #48	; 0x30
 8003a76:	eb02 0383 	add.w	r3, r2, r3, lsl #2
 8003a7a:	930b      	str	r3, [sp, #44]	; 0x2c
 8003a7c:	9ba3      	ldr	r3, [sp, #652]	; 0x28c
 8003a7e:	9e02      	ldr	r6, [sp, #8]
 8003a80:	eb03 0384 	add.w	r3, r3, r4, lsl #2
 8003a84:	930a      	str	r3, [sp, #40]	; 0x28
 8003a86:	ab98      	add	r3, sp, #608	; 0x260
 8003a88:	eb03 03c6 	add.w	r3, r3, r6, lsl #3
 8003a8c:	e953 4528 	ldrd	r4, r5, [r3, #-160]	; 0xa0
 8003a90:	ab70      	add	r3, sp, #448	; 0x1c0
 8003a92:	eb03 0ac6 	add.w	sl, r3, r6, lsl #3
 8003a96:	46d0      	mov	r8, sl
 8003a98:	46b1      	mov	r9, r6
 8003a9a:	af0c      	add	r7, sp, #48	; 0x30
 8003a9c:	9700      	str	r7, [sp, #0]
 8003a9e:	f1b9 0f00 	cmp.w	r9, #0
 8003aa2:	f1a8 0808 	sub.w	r8, r8, #8
 8003aa6:	dc71      	bgt.n	8003b8c <__kernel_rem_pio2+0x1f8>
 8003aa8:	465a      	mov	r2, fp
 8003aaa:	4620      	mov	r0, r4
 8003aac:	4629      	mov	r1, r5
 8003aae:	f000 fdeb 	bl	8004688 <scalbn>
 8003ab2:	2200      	movs	r2, #0
 8003ab4:	f04f 537f 	mov.w	r3, #1069547520	; 0x3fc00000
 8003ab8:	4604      	mov	r4, r0
 8003aba:	460d      	mov	r5, r1
 8003abc:	f7fc fdb8 	bl	8000630 <__aeabi_dmul>
 8003ac0:	f000 fd62 	bl	8004588 <floor>
 8003ac4:	2200      	movs	r2, #0
 8003ac6:	4b6e      	ldr	r3, [pc, #440]	; (8003c80 <__kernel_rem_pio2+0x2ec>)
 8003ac8:	f7fc fdb2 	bl	8000630 <__aeabi_dmul>
 8003acc:	4602      	mov	r2, r0
 8003ace:	460b      	mov	r3, r1
 8003ad0:	4620      	mov	r0, r4
 8003ad2:	4629      	mov	r1, r5
 8003ad4:	f7fc fbf4 	bl	80002c0 <__aeabi_dsub>
 8003ad8:	460d      	mov	r5, r1
 8003ada:	4604      	mov	r4, r0
 8003adc:	f7fd f842 	bl	8000b64 <__aeabi_d2iz>
 8003ae0:	9004      	str	r0, [sp, #16]
 8003ae2:	f7fc fd3b 	bl	800055c <__aeabi_i2d>
 8003ae6:	4602      	mov	r2, r0
 8003ae8:	460b      	mov	r3, r1
 8003aea:	4620      	mov	r0, r4
 8003aec:	4629      	mov	r1, r5
 8003aee:	f7fc fbe7 	bl	80002c0 <__aeabi_dsub>
 8003af2:	f1bb 0f00 	cmp.w	fp, #0
 8003af6:	4680      	mov	r8, r0
 8003af8:	4689      	mov	r9, r1
 8003afa:	dd70      	ble.n	8003bde <__kernel_rem_pio2+0x24a>
 8003afc:	1e72      	subs	r2, r6, #1
 8003afe:	ab0c      	add	r3, sp, #48	; 0x30
 8003b00:	f853 0022 	ldr.w	r0, [r3, r2, lsl #2]
 8003b04:	9c04      	ldr	r4, [sp, #16]
 8003b06:	f1cb 0118 	rsb	r1, fp, #24
 8003b0a:	fa40 f301 	asr.w	r3, r0, r1
 8003b0e:	441c      	add	r4, r3
 8003b10:	408b      	lsls	r3, r1
 8003b12:	1ac0      	subs	r0, r0, r3
 8003b14:	ab0c      	add	r3, sp, #48	; 0x30
 8003b16:	f843 0022 	str.w	r0, [r3, r2, lsl #2]
 8003b1a:	f1cb 0317 	rsb	r3, fp, #23
 8003b1e:	9404      	str	r4, [sp, #16]
 8003b20:	fa40 f303 	asr.w	r3, r0, r3
 8003b24:	9300      	str	r3, [sp, #0]
 8003b26:	9b00      	ldr	r3, [sp, #0]
 8003b28:	2b00      	cmp	r3, #0
 8003b2a:	dd66      	ble.n	8003bfa <__kernel_rem_pio2+0x266>
 8003b2c:	2200      	movs	r2, #0
 8003b2e:	f06f 417f 	mvn.w	r1, #4278190080	; 0xff000000
 8003b32:	4614      	mov	r4, r2
 8003b34:	9b04      	ldr	r3, [sp, #16]
 8003b36:	3301      	adds	r3, #1
 8003b38:	9304      	str	r3, [sp, #16]
 8003b3a:	4296      	cmp	r6, r2
 8003b3c:	f300 80ac 	bgt.w	8003c98 <__kernel_rem_pio2+0x304>
 8003b40:	f1bb 0f00 	cmp.w	fp, #0
 8003b44:	dd07      	ble.n	8003b56 <__kernel_rem_pio2+0x1c2>
 8003b46:	f1bb 0f01 	cmp.w	fp, #1
 8003b4a:	f000 80b4 	beq.w	8003cb6 <__kernel_rem_pio2+0x322>
 8003b4e:	f1bb 0f02 	cmp.w	fp, #2
 8003b52:	f000 80ba 	beq.w	8003cca <__kernel_rem_pio2+0x336>
 8003b56:	9b00      	ldr	r3, [sp, #0]
 8003b58:	2b02      	cmp	r3, #2
 8003b5a:	d14e      	bne.n	8003bfa <__kernel_rem_pio2+0x266>
 8003b5c:	4642      	mov	r2, r8
 8003b5e:	464b      	mov	r3, r9
 8003b60:	2000      	movs	r0, #0
 8003b62:	4948      	ldr	r1, [pc, #288]	; (8003c84 <__kernel_rem_pio2+0x2f0>)
 8003b64:	f7fc fbac 	bl	80002c0 <__aeabi_dsub>
 8003b68:	4680      	mov	r8, r0
 8003b6a:	4689      	mov	r9, r1
 8003b6c:	2c00      	cmp	r4, #0
 8003b6e:	d044      	beq.n	8003bfa <__kernel_rem_pio2+0x266>
 8003b70:	465a      	mov	r2, fp
 8003b72:	2000      	movs	r0, #0
 8003b74:	4943      	ldr	r1, [pc, #268]	; (8003c84 <__kernel_rem_pio2+0x2f0>)
 8003b76:	f000 fd87 	bl	8004688 <scalbn>
 8003b7a:	4602      	mov	r2, r0
 8003b7c:	460b      	mov	r3, r1
 8003b7e:	4640      	mov	r0, r8
 8003b80:	4649      	mov	r1, r9
 8003b82:	f7fc fb9d 	bl	80002c0 <__aeabi_dsub>
 8003b86:	4680      	mov	r8, r0
 8003b88:	4689      	mov	r9, r1
 8003b8a:	e036      	b.n	8003bfa <__kernel_rem_pio2+0x266>
 8003b8c:	2200      	movs	r2, #0
 8003b8e:	4b3e      	ldr	r3, [pc, #248]	; (8003c88 <__kernel_rem_pio2+0x2f4>)
 8003b90:	4620      	mov	r0, r4
 8003b92:	4629      	mov	r1, r5
 8003b94:	f7fc fd4c 	bl	8000630 <__aeabi_dmul>
 8003b98:	f7fc ffe4 	bl	8000b64 <__aeabi_d2iz>
 8003b9c:	f7fc fcde 	bl	800055c <__aeabi_i2d>
 8003ba0:	4602      	mov	r2, r0
 8003ba2:	460b      	mov	r3, r1
 8003ba4:	e9cd 2304 	strd	r2, r3, [sp, #16]
 8003ba8:	2200      	movs	r2, #0
 8003baa:	4b38      	ldr	r3, [pc, #224]	; (8003c8c <__kernel_rem_pio2+0x2f8>)
 8003bac:	f7fc fd40 	bl	8000630 <__aeabi_dmul>
 8003bb0:	4602      	mov	r2, r0
 8003bb2:	460b      	mov	r3, r1
 8003bb4:	4620      	mov	r0, r4
 8003bb6:	4629      	mov	r1, r5
 8003bb8:	f7fc fb82 	bl	80002c0 <__aeabi_dsub>
 8003bbc:	f7fc ffd2 	bl	8000b64 <__aeabi_d2iz>
 8003bc0:	9b00      	ldr	r3, [sp, #0]
 8003bc2:	f109 39ff 	add.w	r9, r9, #4294967295
 8003bc6:	f843 0b04 	str.w	r0, [r3], #4
 8003bca:	9300      	str	r3, [sp, #0]
 8003bcc:	e9dd 0104 	ldrd	r0, r1, [sp, #16]
 8003bd0:	e9d8 2300 	ldrd	r2, r3, [r8]
 8003bd4:	f7fc fb76 	bl	80002c4 <__adddf3>
 8003bd8:	4604      	mov	r4, r0
 8003bda:	460d      	mov	r5, r1
 8003bdc:	e75f      	b.n	8003a9e <__kernel_rem_pio2+0x10a>
 8003bde:	d105      	bne.n	8003bec <__kernel_rem_pio2+0x258>
 8003be0:	1e73      	subs	r3, r6, #1
 8003be2:	aa0c      	add	r2, sp, #48	; 0x30
 8003be4:	f852 0023 	ldr.w	r0, [r2, r3, lsl #2]
 8003be8:	15c3      	asrs	r3, r0, #23
 8003bea:	e79b      	b.n	8003b24 <__kernel_rem_pio2+0x190>
 8003bec:	2200      	movs	r2, #0
 8003bee:	4b28      	ldr	r3, [pc, #160]	; (8003c90 <__kernel_rem_pio2+0x2fc>)
 8003bf0:	f7fc ffa4 	bl	8000b3c <__aeabi_dcmpge>
 8003bf4:	2800      	cmp	r0, #0
 8003bf6:	d13e      	bne.n	8003c76 <__kernel_rem_pio2+0x2e2>
 8003bf8:	9000      	str	r0, [sp, #0]
 8003bfa:	2200      	movs	r2, #0
 8003bfc:	2300      	movs	r3, #0
 8003bfe:	4640      	mov	r0, r8
 8003c00:	4649      	mov	r1, r9
 8003c02:	f7fc ff7d 	bl	8000b00 <__aeabi_dcmpeq>
 8003c06:	2800      	cmp	r0, #0
 8003c08:	f000 80b1 	beq.w	8003d6e <__kernel_rem_pio2+0x3da>
 8003c0c:	1e74      	subs	r4, r6, #1
 8003c0e:	4623      	mov	r3, r4
 8003c10:	2200      	movs	r2, #0
 8003c12:	9902      	ldr	r1, [sp, #8]
 8003c14:	428b      	cmp	r3, r1
 8003c16:	da5f      	bge.n	8003cd8 <__kernel_rem_pio2+0x344>
 8003c18:	2a00      	cmp	r2, #0
 8003c1a:	d074      	beq.n	8003d06 <__kernel_rem_pio2+0x372>
 8003c1c:	ab0c      	add	r3, sp, #48	; 0x30
 8003c1e:	f853 3024 	ldr.w	r3, [r3, r4, lsl #2]
 8003c22:	f1ab 0b18 	sub.w	fp, fp, #24
 8003c26:	2b00      	cmp	r3, #0
 8003c28:	f000 809f 	beq.w	8003d6a <__kernel_rem_pio2+0x3d6>
 8003c2c:	465a      	mov	r2, fp
 8003c2e:	2000      	movs	r0, #0
 8003c30:	4914      	ldr	r1, [pc, #80]	; (8003c84 <__kernel_rem_pio2+0x2f0>)
 8003c32:	f000 fd29 	bl	8004688 <scalbn>
 8003c36:	46a2      	mov	sl, r4
 8003c38:	4606      	mov	r6, r0
 8003c3a:	460f      	mov	r7, r1
 8003c3c:	f04f 0800 	mov.w	r8, #0
 8003c40:	ab70      	add	r3, sp, #448	; 0x1c0
 8003c42:	f8df 9044 	ldr.w	r9, [pc, #68]	; 8003c88 <__kernel_rem_pio2+0x2f4>
 8003c46:	00e5      	lsls	r5, r4, #3
 8003c48:	eb03 0bc4 	add.w	fp, r3, r4, lsl #3
 8003c4c:	f1ba 0f00 	cmp.w	sl, #0
 8003c50:	f280 80c3 	bge.w	8003dda <__kernel_rem_pio2+0x446>
 8003c54:	4626      	mov	r6, r4
 8003c56:	2e00      	cmp	r6, #0
 8003c58:	f2c0 80f5 	blt.w	8003e46 <__kernel_rem_pio2+0x4b2>
 8003c5c:	4b0d      	ldr	r3, [pc, #52]	; (8003c94 <__kernel_rem_pio2+0x300>)
 8003c5e:	f04f 0a00 	mov.w	sl, #0
 8003c62:	9307      	str	r3, [sp, #28]
 8003c64:	ab70      	add	r3, sp, #448	; 0x1c0
 8003c66:	f04f 0b00 	mov.w	fp, #0
 8003c6a:	f04f 0800 	mov.w	r8, #0
 8003c6e:	eb03 09c6 	add.w	r9, r3, r6, lsl #3
 8003c72:	1ba7      	subs	r7, r4, r6
 8003c74:	e0db      	b.n	8003e2e <__kernel_rem_pio2+0x49a>
 8003c76:	2302      	movs	r3, #2
 8003c78:	9300      	str	r3, [sp, #0]
 8003c7a:	e757      	b.n	8003b2c <__kernel_rem_pio2+0x198>
 8003c7c:	080049e8 	.word	0x080049e8
 8003c80:	40200000 	.word	0x40200000
 8003c84:	3ff00000 	.word	0x3ff00000
 8003c88:	3e700000 	.word	0x3e700000
 8003c8c:	41700000 	.word	0x41700000
 8003c90:	3fe00000 	.word	0x3fe00000
 8003c94:	080049a8 	.word	0x080049a8
 8003c98:	683b      	ldr	r3, [r7, #0]
 8003c9a:	b944      	cbnz	r4, 8003cae <__kernel_rem_pio2+0x31a>
 8003c9c:	b11b      	cbz	r3, 8003ca6 <__kernel_rem_pio2+0x312>
 8003c9e:	f1c3 7380 	rsb	r3, r3, #16777216	; 0x1000000
 8003ca2:	603b      	str	r3, [r7, #0]
 8003ca4:	2301      	movs	r3, #1
 8003ca6:	461c      	mov	r4, r3
 8003ca8:	3201      	adds	r2, #1
 8003caa:	3704      	adds	r7, #4
 8003cac:	e745      	b.n	8003b3a <__kernel_rem_pio2+0x1a6>
 8003cae:	1acb      	subs	r3, r1, r3
 8003cb0:	603b      	str	r3, [r7, #0]
 8003cb2:	4623      	mov	r3, r4
 8003cb4:	e7f7      	b.n	8003ca6 <__kernel_rem_pio2+0x312>
 8003cb6:	1e72      	subs	r2, r6, #1
 8003cb8:	ab0c      	add	r3, sp, #48	; 0x30
 8003cba:	f853 3022 	ldr.w	r3, [r3, r2, lsl #2]
 8003cbe:	f3c3 0316 	ubfx	r3, r3, #0, #23
 8003cc2:	a90c      	add	r1, sp, #48	; 0x30
 8003cc4:	f841 3022 	str.w	r3, [r1, r2, lsl #2]
 8003cc8:	e745      	b.n	8003b56 <__kernel_rem_pio2+0x1c2>
 8003cca:	1e72      	subs	r2, r6, #1
 8003ccc:	ab0c      	add	r3, sp, #48	; 0x30
 8003cce:	f853 3022 	ldr.w	r3, [r3, r2, lsl #2]
 8003cd2:	f3c3 0315 	ubfx	r3, r3, #0, #22
 8003cd6:	e7f4      	b.n	8003cc2 <__kernel_rem_pio2+0x32e>
 8003cd8:	a90c      	add	r1, sp, #48	; 0x30
 8003cda:	f851 1023 	ldr.w	r1, [r1, r3, lsl #2]
 8003cde:	3b01      	subs	r3, #1
 8003ce0:	430a      	orrs	r2, r1
 8003ce2:	e796      	b.n	8003c12 <__kernel_rem_pio2+0x27e>
 8003ce4:	3401      	adds	r4, #1
 8003ce6:	f853 2d04 	ldr.w	r2, [r3, #-4]!
 8003cea:	2a00      	cmp	r2, #0
 8003cec:	d0fa      	beq.n	8003ce4 <__kernel_rem_pio2+0x350>
 8003cee:	9b08      	ldr	r3, [sp, #32]
 8003cf0:	f106 0801 	add.w	r8, r6, #1
 8003cf4:	18f5      	adds	r5, r6, r3
 8003cf6:	ab20      	add	r3, sp, #128	; 0x80
 8003cf8:	eb03 05c5 	add.w	r5, r3, r5, lsl #3
 8003cfc:	4434      	add	r4, r6
 8003cfe:	4544      	cmp	r4, r8
 8003d00:	da04      	bge.n	8003d0c <__kernel_rem_pio2+0x378>
 8003d02:	4626      	mov	r6, r4
 8003d04:	e6bf      	b.n	8003a86 <__kernel_rem_pio2+0xf2>
 8003d06:	2401      	movs	r4, #1
 8003d08:	9b0b      	ldr	r3, [sp, #44]	; 0x2c
 8003d0a:	e7ec      	b.n	8003ce6 <__kernel_rem_pio2+0x352>
 8003d0c:	9b0a      	ldr	r3, [sp, #40]	; 0x28
 8003d0e:	f04f 0900 	mov.w	r9, #0
 8003d12:	f853 0028 	ldr.w	r0, [r3, r8, lsl #2]
 8003d16:	f7fc fc21 	bl	800055c <__aeabi_i2d>
 8003d1a:	2600      	movs	r6, #0
 8003d1c:	2700      	movs	r7, #0
 8003d1e:	9b09      	ldr	r3, [sp, #36]	; 0x24
 8003d20:	e9c5 0100 	strd	r0, r1, [r5]
 8003d24:	3b08      	subs	r3, #8
 8003d26:	9300      	str	r3, [sp, #0]
 8003d28:	9504      	str	r5, [sp, #16]
 8003d2a:	9b07      	ldr	r3, [sp, #28]
 8003d2c:	4599      	cmp	r9, r3
 8003d2e:	dd05      	ble.n	8003d3c <__kernel_rem_pio2+0x3a8>
 8003d30:	e9ea 6702 	strd	r6, r7, [sl, #8]!
 8003d34:	f108 0801 	add.w	r8, r8, #1
 8003d38:	3508      	adds	r5, #8
 8003d3a:	e7e0      	b.n	8003cfe <__kernel_rem_pio2+0x36a>
 8003d3c:	f8dd c010 	ldr.w	ip, [sp, #16]
 8003d40:	9900      	ldr	r1, [sp, #0]
 8003d42:	f109 0901 	add.w	r9, r9, #1
 8003d46:	e9f1 2302 	ldrd	r2, r3, [r1, #8]!
 8003d4a:	9100      	str	r1, [sp, #0]
 8003d4c:	e87c 0102 	ldrd	r0, r1, [ip], #-8
 8003d50:	f8cd c010 	str.w	ip, [sp, #16]
 8003d54:	f7fc fc6c 	bl	8000630 <__aeabi_dmul>
 8003d58:	4602      	mov	r2, r0
 8003d5a:	460b      	mov	r3, r1
 8003d5c:	4630      	mov	r0, r6
 8003d5e:	4639      	mov	r1, r7
 8003d60:	f7fc fab0 	bl	80002c4 <__adddf3>
 8003d64:	4606      	mov	r6, r0
 8003d66:	460f      	mov	r7, r1
 8003d68:	e7df      	b.n	8003d2a <__kernel_rem_pio2+0x396>
 8003d6a:	3c01      	subs	r4, #1
 8003d6c:	e756      	b.n	8003c1c <__kernel_rem_pio2+0x288>
 8003d6e:	f1cb 0200 	rsb	r2, fp, #0
 8003d72:	4640      	mov	r0, r8
 8003d74:	4649      	mov	r1, r9
 8003d76:	f000 fc87 	bl	8004688 <scalbn>
 8003d7a:	2200      	movs	r2, #0
 8003d7c:	4ba4      	ldr	r3, [pc, #656]	; (8004010 <__kernel_rem_pio2+0x67c>)
 8003d7e:	4604      	mov	r4, r0
 8003d80:	460d      	mov	r5, r1
 8003d82:	f7fc fedb 	bl	8000b3c <__aeabi_dcmpge>
 8003d86:	b1f8      	cbz	r0, 8003dc8 <__kernel_rem_pio2+0x434>
 8003d88:	2200      	movs	r2, #0
 8003d8a:	4ba2      	ldr	r3, [pc, #648]	; (8004014 <__kernel_rem_pio2+0x680>)
 8003d8c:	4620      	mov	r0, r4
 8003d8e:	4629      	mov	r1, r5
 8003d90:	f7fc fc4e 	bl	8000630 <__aeabi_dmul>
 8003d94:	f7fc fee6 	bl	8000b64 <__aeabi_d2iz>
 8003d98:	4607      	mov	r7, r0
 8003d9a:	f7fc fbdf 	bl	800055c <__aeabi_i2d>
 8003d9e:	2200      	movs	r2, #0
 8003da0:	4b9b      	ldr	r3, [pc, #620]	; (8004010 <__kernel_rem_pio2+0x67c>)
 8003da2:	f7fc fc45 	bl	8000630 <__aeabi_dmul>
 8003da6:	460b      	mov	r3, r1
 8003da8:	4602      	mov	r2, r0
 8003daa:	4629      	mov	r1, r5
 8003dac:	4620      	mov	r0, r4
 8003dae:	f7fc fa87 	bl	80002c0 <__aeabi_dsub>
 8003db2:	f7fc fed7 	bl	8000b64 <__aeabi_d2iz>
 8003db6:	1c74      	adds	r4, r6, #1
 8003db8:	ab0c      	add	r3, sp, #48	; 0x30
 8003dba:	f843 0026 	str.w	r0, [r3, r6, lsl #2]
 8003dbe:	f10b 0b18 	add.w	fp, fp, #24
 8003dc2:	f843 7024 	str.w	r7, [r3, r4, lsl #2]
 8003dc6:	e731      	b.n	8003c2c <__kernel_rem_pio2+0x298>
 8003dc8:	4620      	mov	r0, r4
 8003dca:	4629      	mov	r1, r5
 8003dcc:	f7fc feca 	bl	8000b64 <__aeabi_d2iz>
 8003dd0:	ab0c      	add	r3, sp, #48	; 0x30
 8003dd2:	4634      	mov	r4, r6
 8003dd4:	f843 0026 	str.w	r0, [r3, r6, lsl #2]
 8003dd8:	e728      	b.n	8003c2c <__kernel_rem_pio2+0x298>
 8003dda:	ab0c      	add	r3, sp, #48	; 0x30
 8003ddc:	f853 002a 	ldr.w	r0, [r3, sl, lsl #2]
 8003de0:	f7fc fbbc 	bl	800055c <__aeabi_i2d>
 8003de4:	4632      	mov	r2, r6
 8003de6:	463b      	mov	r3, r7
 8003de8:	f7fc fc22 	bl	8000630 <__aeabi_dmul>
 8003dec:	4642      	mov	r2, r8
 8003dee:	e86b 0102 	strd	r0, r1, [fp], #-8
 8003df2:	464b      	mov	r3, r9
 8003df4:	4630      	mov	r0, r6
 8003df6:	4639      	mov	r1, r7
 8003df8:	f7fc fc1a 	bl	8000630 <__aeabi_dmul>
 8003dfc:	f10a 3aff 	add.w	sl, sl, #4294967295
 8003e00:	4606      	mov	r6, r0
 8003e02:	460f      	mov	r7, r1
 8003e04:	e722      	b.n	8003c4c <__kernel_rem_pio2+0x2b8>
 8003e06:	f8dd c01c 	ldr.w	ip, [sp, #28]
 8003e0a:	e8f9 2302 	ldrd	r2, r3, [r9], #8
 8003e0e:	e8fc 0102 	ldrd	r0, r1, [ip], #8
 8003e12:	f8cd c01c 	str.w	ip, [sp, #28]
 8003e16:	f7fc fc0b 	bl	8000630 <__aeabi_dmul>
 8003e1a:	4602      	mov	r2, r0
 8003e1c:	460b      	mov	r3, r1
 8003e1e:	4650      	mov	r0, sl
 8003e20:	4659      	mov	r1, fp
 8003e22:	f7fc fa4f 	bl	80002c4 <__adddf3>
 8003e26:	4682      	mov	sl, r0
 8003e28:	468b      	mov	fp, r1
 8003e2a:	f108 0801 	add.w	r8, r8, #1
 8003e2e:	9b02      	ldr	r3, [sp, #8]
 8003e30:	4598      	cmp	r8, r3
 8003e32:	dc01      	bgt.n	8003e38 <__kernel_rem_pio2+0x4a4>
 8003e34:	45b8      	cmp	r8, r7
 8003e36:	dde6      	ble.n	8003e06 <__kernel_rem_pio2+0x472>
 8003e38:	ab48      	add	r3, sp, #288	; 0x120
 8003e3a:	eb03 07c7 	add.w	r7, r3, r7, lsl #3
 8003e3e:	e9c7 ab00 	strd	sl, fp, [r7]
 8003e42:	3e01      	subs	r6, #1
 8003e44:	e707      	b.n	8003c56 <__kernel_rem_pio2+0x2c2>
 8003e46:	9ba2      	ldr	r3, [sp, #648]	; 0x288
 8003e48:	2b02      	cmp	r3, #2
 8003e4a:	dc09      	bgt.n	8003e60 <__kernel_rem_pio2+0x4cc>
 8003e4c:	2b00      	cmp	r3, #0
 8003e4e:	dc32      	bgt.n	8003eb6 <__kernel_rem_pio2+0x522>
 8003e50:	d05a      	beq.n	8003f08 <__kernel_rem_pio2+0x574>
 8003e52:	9b04      	ldr	r3, [sp, #16]
 8003e54:	f003 0007 	and.w	r0, r3, #7
 8003e58:	f50d 7d19 	add.w	sp, sp, #612	; 0x264
 8003e5c:	e8bd 8ff0 	ldmia.w	sp!, {r4, r5, r6, r7, r8, r9, sl, fp, pc}
 8003e60:	9ba2      	ldr	r3, [sp, #648]	; 0x288
 8003e62:	2b03      	cmp	r3, #3
 8003e64:	d1f5      	bne.n	8003e52 <__kernel_rem_pio2+0x4be>
 8003e66:	ab48      	add	r3, sp, #288	; 0x120
 8003e68:	441d      	add	r5, r3
 8003e6a:	46aa      	mov	sl, r5
 8003e6c:	46a3      	mov	fp, r4
 8003e6e:	f1bb 0f00 	cmp.w	fp, #0
 8003e72:	dc76      	bgt.n	8003f62 <__kernel_rem_pio2+0x5ce>
 8003e74:	46aa      	mov	sl, r5
 8003e76:	46a3      	mov	fp, r4
 8003e78:	f1bb 0f01 	cmp.w	fp, #1
 8003e7c:	f300 8090 	bgt.w	8003fa0 <__kernel_rem_pio2+0x60c>
 8003e80:	2700      	movs	r7, #0
 8003e82:	463e      	mov	r6, r7
 8003e84:	2c01      	cmp	r4, #1
 8003e86:	f300 80aa 	bgt.w	8003fde <__kernel_rem_pio2+0x64a>
 8003e8a:	e9dd 5048 	ldrd	r5, r0, [sp, #288]	; 0x120
 8003e8e:	e9dd 414a 	ldrd	r4, r1, [sp, #296]	; 0x128
 8003e92:	9b00      	ldr	r3, [sp, #0]
 8003e94:	2b00      	cmp	r3, #0
 8003e96:	f040 80ac 	bne.w	8003ff2 <__kernel_rem_pio2+0x65e>
 8003e9a:	4603      	mov	r3, r0
 8003e9c:	462a      	mov	r2, r5
 8003e9e:	9806      	ldr	r0, [sp, #24]
 8003ea0:	e9c0 2300 	strd	r2, r3, [r0]
 8003ea4:	4622      	mov	r2, r4
 8003ea6:	460b      	mov	r3, r1
 8003ea8:	e9c0 2302 	strd	r2, r3, [r0, #8]
 8003eac:	463a      	mov	r2, r7
 8003eae:	4633      	mov	r3, r6
 8003eb0:	e9c0 2304 	strd	r2, r3, [r0, #16]
 8003eb4:	e7cd      	b.n	8003e52 <__kernel_rem_pio2+0x4be>
 8003eb6:	2000      	movs	r0, #0
 8003eb8:	46a0      	mov	r8, r4
 8003eba:	4601      	mov	r1, r0
 8003ebc:	ab48      	add	r3, sp, #288	; 0x120
 8003ebe:	441d      	add	r5, r3
 8003ec0:	f1b8 0f00 	cmp.w	r8, #0
 8003ec4:	da3a      	bge.n	8003f3c <__kernel_rem_pio2+0x5a8>
 8003ec6:	9b00      	ldr	r3, [sp, #0]
 8003ec8:	2b00      	cmp	r3, #0
 8003eca:	d03e      	beq.n	8003f4a <__kernel_rem_pio2+0x5b6>
 8003ecc:	f101 4500 	add.w	r5, r1, #2147483648	; 0x80000000
 8003ed0:	4602      	mov	r2, r0
 8003ed2:	462b      	mov	r3, r5
 8003ed4:	9d06      	ldr	r5, [sp, #24]
 8003ed6:	2601      	movs	r6, #1
 8003ed8:	e9c5 2300 	strd	r2, r3, [r5]
 8003edc:	460b      	mov	r3, r1
 8003ede:	e9dd 0148 	ldrd	r0, r1, [sp, #288]	; 0x120
 8003ee2:	f7fc f9ed 	bl	80002c0 <__aeabi_dsub>
 8003ee6:	4684      	mov	ip, r0
 8003ee8:	460f      	mov	r7, r1
 8003eea:	ad48      	add	r5, sp, #288	; 0x120
 8003eec:	42b4      	cmp	r4, r6
 8003eee:	f105 0508 	add.w	r5, r5, #8
 8003ef2:	da2c      	bge.n	8003f4e <__kernel_rem_pio2+0x5ba>
 8003ef4:	9b00      	ldr	r3, [sp, #0]
 8003ef6:	b10b      	cbz	r3, 8003efc <__kernel_rem_pio2+0x568>
 8003ef8:	f107 4700 	add.w	r7, r7, #2147483648	; 0x80000000
 8003efc:	4662      	mov	r2, ip
 8003efe:	463b      	mov	r3, r7
 8003f00:	9906      	ldr	r1, [sp, #24]
 8003f02:	e9c1 2302 	strd	r2, r3, [r1, #8]
 8003f06:	e7a4      	b.n	8003e52 <__kernel_rem_pio2+0x4be>
 8003f08:	9ea2      	ldr	r6, [sp, #648]	; 0x288
 8003f0a:	ab48      	add	r3, sp, #288	; 0x120
 8003f0c:	4637      	mov	r7, r6
 8003f0e:	441d      	add	r5, r3
 8003f10:	2c00      	cmp	r4, #0
 8003f12:	da09      	bge.n	8003f28 <__kernel_rem_pio2+0x594>
 8003f14:	9b00      	ldr	r3, [sp, #0]
 8003f16:	b10b      	cbz	r3, 8003f1c <__kernel_rem_pio2+0x588>
 8003f18:	f107 4700 	add.w	r7, r7, #2147483648	; 0x80000000
 8003f1c:	4632      	mov	r2, r6
 8003f1e:	463b      	mov	r3, r7
 8003f20:	9906      	ldr	r1, [sp, #24]
 8003f22:	e9c1 2300 	strd	r2, r3, [r1]
 8003f26:	e794      	b.n	8003e52 <__kernel_rem_pio2+0x4be>
 8003f28:	4630      	mov	r0, r6
 8003f2a:	e875 2302 	ldrd	r2, r3, [r5], #-8
 8003f2e:	4639      	mov	r1, r7
 8003f30:	f7fc f9c8 	bl	80002c4 <__adddf3>
 8003f34:	3c01      	subs	r4, #1
 8003f36:	4606      	mov	r6, r0
 8003f38:	460f      	mov	r7, r1
 8003f3a:	e7e9      	b.n	8003f10 <__kernel_rem_pio2+0x57c>
 8003f3c:	e875 2302 	ldrd	r2, r3, [r5], #-8
 8003f40:	f7fc f9c0 	bl	80002c4 <__adddf3>
 8003f44:	f108 38ff 	add.w	r8, r8, #4294967295
 8003f48:	e7ba      	b.n	8003ec0 <__kernel_rem_pio2+0x52c>
 8003f4a:	460d      	mov	r5, r1
 8003f4c:	e7c0      	b.n	8003ed0 <__kernel_rem_pio2+0x53c>
 8003f4e:	4660      	mov	r0, ip
 8003f50:	e9d5 2300 	ldrd	r2, r3, [r5]
 8003f54:	4639      	mov	r1, r7
 8003f56:	f7fc f9b5 	bl	80002c4 <__adddf3>
 8003f5a:	3601      	adds	r6, #1
 8003f5c:	4684      	mov	ip, r0
 8003f5e:	460f      	mov	r7, r1
 8003f60:	e7c4      	b.n	8003eec <__kernel_rem_pio2+0x558>
 8003f62:	e9da 6700 	ldrd	r6, r7, [sl]
 8003f66:	e95a 8902 	ldrd	r8, r9, [sl, #-8]
 8003f6a:	4632      	mov	r2, r6
 8003f6c:	463b      	mov	r3, r7
 8003f6e:	4640      	mov	r0, r8
 8003f70:	4649      	mov	r1, r9
 8003f72:	f7fc f9a7 	bl	80002c4 <__adddf3>
 8003f76:	4602      	mov	r2, r0
 8003f78:	460b      	mov	r3, r1
 8003f7a:	e9cd 0102 	strd	r0, r1, [sp, #8]
 8003f7e:	4640      	mov	r0, r8
 8003f80:	4649      	mov	r1, r9
 8003f82:	f7fc f99d 	bl	80002c0 <__aeabi_dsub>
 8003f86:	4632      	mov	r2, r6
 8003f88:	463b      	mov	r3, r7
 8003f8a:	f7fc f99b 	bl	80002c4 <__adddf3>
 8003f8e:	e9dd 2302 	ldrd	r2, r3, [sp, #8]
 8003f92:	e86a 0102 	strd	r0, r1, [sl], #-8
 8003f96:	f10b 3bff 	add.w	fp, fp, #4294967295
 8003f9a:	e9ca 2300 	strd	r2, r3, [sl]
 8003f9e:	e766      	b.n	8003e6e <__kernel_rem_pio2+0x4da>
 8003fa0:	e9da 8900 	ldrd	r8, r9, [sl]
 8003fa4:	e95a 6702 	ldrd	r6, r7, [sl, #-8]
 8003fa8:	4642      	mov	r2, r8
 8003faa:	464b      	mov	r3, r9
 8003fac:	4630      	mov	r0, r6
 8003fae:	4639      	mov	r1, r7
 8003fb0:	f7fc f988 	bl	80002c4 <__adddf3>
 8003fb4:	4602      	mov	r2, r0
 8003fb6:	460b      	mov	r3, r1
 8003fb8:	e9cd 0102 	strd	r0, r1, [sp, #8]
 8003fbc:	4630      	mov	r0, r6
 8003fbe:	4639      	mov	r1, r7
 8003fc0:	f7fc f97e 	bl	80002c0 <__aeabi_dsub>
 8003fc4:	4642      	mov	r2, r8
 8003fc6:	464b      	mov	r3, r9
 8003fc8:	f7fc f97c 	bl	80002c4 <__adddf3>
 8003fcc:	e9dd 2302 	ldrd	r2, r3, [sp, #8]
 8003fd0:	e86a 0102 	strd	r0, r1, [sl], #-8
 8003fd4:	f10b 3bff 	add.w	fp, fp, #4294967295
 8003fd8:	e9ca 2300 	strd	r2, r3, [sl]
 8003fdc:	e74c      	b.n	8003e78 <__kernel_rem_pio2+0x4e4>
 8003fde:	4638      	mov	r0, r7
 8003fe0:	e875 2302 	ldrd	r2, r3, [r5], #-8
 8003fe4:	4631      	mov	r1, r6
 8003fe6:	f7fc f96d 	bl	80002c4 <__adddf3>
 8003fea:	3c01      	subs	r4, #1
 8003fec:	4607      	mov	r7, r0
 8003fee:	460e      	mov	r6, r1
 8003ff0:	e748      	b.n	8003e84 <__kernel_rem_pio2+0x4f0>
 8003ff2:	9b06      	ldr	r3, [sp, #24]
 8003ff4:	f100 4000 	add.w	r0, r0, #2147483648	; 0x80000000
 8003ff8:	f101 4100 	add.w	r1, r1, #2147483648	; 0x80000000
 8003ffc:	f106 4600 	add.w	r6, r6, #2147483648	; 0x80000000
 8004000:	e9c3 0401 	strd	r0, r4, [r3, #4]
 8004004:	e9c3 1703 	strd	r1, r7, [r3, #12]
 8004008:	601d      	str	r5, [r3, #0]
 800400a:	615e      	str	r6, [r3, #20]
 800400c:	e721      	b.n	8003e52 <__kernel_rem_pio2+0x4be>
 800400e:	bf00      	nop
 8004010:	41700000 	.word	0x41700000
 8004014:	3e700000 	.word	0x3e700000

08004018 <__kernel_sin>:
 8004018:	e92d 47f0 	stmdb	sp!, {r4, r5, r6, r7, r8, r9, sl, lr}
 800401c:	b086      	sub	sp, #24
 800401e:	e9cd 2300 	strd	r2, r3, [sp]
 8004022:	f021 4300 	bic.w	r3, r1, #2147483648	; 0x80000000
 8004026:	f1b3 5f79 	cmp.w	r3, #1044381696	; 0x3e400000
 800402a:	4682      	mov	sl, r0
 800402c:	460c      	mov	r4, r1
 800402e:	9d0e      	ldr	r5, [sp, #56]	; 0x38
 8004030:	da03      	bge.n	800403a <__kernel_sin+0x22>
 8004032:	f7fc fd97 	bl	8000b64 <__aeabi_d2iz>
 8004036:	2800      	cmp	r0, #0
 8004038:	d050      	beq.n	80040dc <__kernel_sin+0xc4>
 800403a:	4652      	mov	r2, sl
 800403c:	4623      	mov	r3, r4
 800403e:	4650      	mov	r0, sl
 8004040:	4621      	mov	r1, r4
 8004042:	f7fc faf5 	bl	8000630 <__aeabi_dmul>
 8004046:	4606      	mov	r6, r0
 8004048:	460f      	mov	r7, r1
 800404a:	4602      	mov	r2, r0
 800404c:	460b      	mov	r3, r1
 800404e:	4650      	mov	r0, sl
 8004050:	4621      	mov	r1, r4
 8004052:	f7fc faed 	bl	8000630 <__aeabi_dmul>
 8004056:	a33e      	add	r3, pc, #248	; (adr r3, 8004150 <__kernel_sin+0x138>)
 8004058:	e9d3 2300 	ldrd	r2, r3, [r3]
 800405c:	4680      	mov	r8, r0
 800405e:	4689      	mov	r9, r1
 8004060:	4630      	mov	r0, r6
 8004062:	4639      	mov	r1, r7
 8004064:	f7fc fae4 	bl	8000630 <__aeabi_dmul>
 8004068:	a33b      	add	r3, pc, #236	; (adr r3, 8004158 <__kernel_sin+0x140>)
 800406a:	e9d3 2300 	ldrd	r2, r3, [r3]
 800406e:	f7fc f927 	bl	80002c0 <__aeabi_dsub>
 8004072:	4632      	mov	r2, r6
 8004074:	463b      	mov	r3, r7
 8004076:	f7fc fadb 	bl	8000630 <__aeabi_dmul>
 800407a:	a339      	add	r3, pc, #228	; (adr r3, 8004160 <__kernel_sin+0x148>)
 800407c:	e9d3 2300 	ldrd	r2, r3, [r3]
 8004080:	f7fc f920 	bl	80002c4 <__adddf3>
 8004084:	4632      	mov	r2, r6
 8004086:	463b      	mov	r3, r7
 8004088:	f7fc fad2 	bl	8000630 <__aeabi_dmul>
 800408c:	a336      	add	r3, pc, #216	; (adr r3, 8004168 <__kernel_sin+0x150>)
 800408e:	e9d3 2300 	ldrd	r2, r3, [r3]
 8004092:	f7fc f915 	bl	80002c0 <__aeabi_dsub>
 8004096:	4632      	mov	r2, r6
 8004098:	463b      	mov	r3, r7
 800409a:	f7fc fac9 	bl	8000630 <__aeabi_dmul>
 800409e:	a334      	add	r3, pc, #208	; (adr r3, 8004170 <__kernel_sin+0x158>)
 80040a0:	e9d3 2300 	ldrd	r2, r3, [r3]
 80040a4:	f7fc f90e 	bl	80002c4 <__adddf3>
 80040a8:	e9cd 0102 	strd	r0, r1, [sp, #8]
 80040ac:	b9dd      	cbnz	r5, 80040e6 <__kernel_sin+0xce>
 80040ae:	4602      	mov	r2, r0
 80040b0:	460b      	mov	r3, r1
 80040b2:	4630      	mov	r0, r6
 80040b4:	4639      	mov	r1, r7
 80040b6:	f7fc fabb 	bl	8000630 <__aeabi_dmul>
 80040ba:	a32f      	add	r3, pc, #188	; (adr r3, 8004178 <__kernel_sin+0x160>)
 80040bc:	e9d3 2300 	ldrd	r2, r3, [r3]
 80040c0:	f7fc f8fe 	bl	80002c0 <__aeabi_dsub>
 80040c4:	4642      	mov	r2, r8
 80040c6:	464b      	mov	r3, r9
 80040c8:	f7fc fab2 	bl	8000630 <__aeabi_dmul>
 80040cc:	4602      	mov	r2, r0
 80040ce:	460b      	mov	r3, r1
 80040d0:	4650      	mov	r0, sl
 80040d2:	4621      	mov	r1, r4
 80040d4:	f7fc f8f6 	bl	80002c4 <__adddf3>
 80040d8:	4682      	mov	sl, r0
 80040da:	460c      	mov	r4, r1
 80040dc:	4650      	mov	r0, sl
 80040de:	4621      	mov	r1, r4
 80040e0:	b006      	add	sp, #24
 80040e2:	e8bd 87f0 	ldmia.w	sp!, {r4, r5, r6, r7, r8, r9, sl, pc}
 80040e6:	2200      	movs	r2, #0
 80040e8:	e9dd 0100 	ldrd	r0, r1, [sp]
 80040ec:	4b24      	ldr	r3, [pc, #144]	; (8004180 <__kernel_sin+0x168>)
 80040ee:	f7fc fa9f 	bl	8000630 <__aeabi_dmul>
 80040f2:	e9dd 2302 	ldrd	r2, r3, [sp, #8]
 80040f6:	e9cd 0104 	strd	r0, r1, [sp, #16]
 80040fa:	4640      	mov	r0, r8
 80040fc:	4649      	mov	r1, r9
 80040fe:	f7fc fa97 	bl	8000630 <__aeabi_dmul>
 8004102:	4602      	mov	r2, r0
 8004104:	460b      	mov	r3, r1
 8004106:	e9dd 0104 	ldrd	r0, r1, [sp, #16]
 800410a:	f7fc f8d9 	bl	80002c0 <__aeabi_dsub>
 800410e:	4632      	mov	r2, r6
 8004110:	463b      	mov	r3, r7
 8004112:	f7fc fa8d 	bl	8000630 <__aeabi_dmul>
 8004116:	e9dd 2300 	ldrd	r2, r3, [sp]
 800411a:	f7fc f8d1 	bl	80002c0 <__aeabi_dsub>
 800411e:	a316      	add	r3, pc, #88	; (adr r3, 8004178 <__kernel_sin+0x160>)
 8004120:	e9d3 2300 	ldrd	r2, r3, [r3]
 8004124:	4606      	mov	r6, r0
 8004126:	460f      	mov	r7, r1
 8004128:	4640      	mov	r0, r8
 800412a:	4649      	mov	r1, r9
 800412c:	f7fc fa80 	bl	8000630 <__aeabi_dmul>
 8004130:	4602      	mov	r2, r0
 8004132:	460b      	mov	r3, r1
 8004134:	4630      	mov	r0, r6
 8004136:	4639      	mov	r1, r7
 8004138:	f7fc f8c4 	bl	80002c4 <__adddf3>
 800413c:	4602      	mov	r2, r0
 800413e:	460b      	mov	r3, r1
 8004140:	4650      	mov	r0, sl
 8004142:	4621      	mov	r1, r4
 8004144:	f7fc f8bc 	bl	80002c0 <__aeabi_dsub>
 8004148:	e7c6      	b.n	80040d8 <__kernel_sin+0xc0>
 800414a:	bf00      	nop
 800414c:	f3af 8000 	nop.w
 8004150:	5acfd57c 	.word	0x5acfd57c
 8004154:	3de5d93a 	.word	0x3de5d93a
 8004158:	8a2b9ceb 	.word	0x8a2b9ceb
 800415c:	3e5ae5e6 	.word	0x3e5ae5e6
 8004160:	57b1fe7d 	.word	0x57b1fe7d
 8004164:	3ec71de3 	.word	0x3ec71de3
 8004168:	19c161d5 	.word	0x19c161d5
 800416c:	3f2a01a0 	.word	0x3f2a01a0
 8004170:	1110f8a6 	.word	0x1110f8a6
 8004174:	3f811111 	.word	0x3f811111
 8004178:	55555549 	.word	0x55555549
 800417c:	3fc55555 	.word	0x3fc55555
 8004180:	3fe00000 	.word	0x3fe00000
 8004184:	00000000 	.word	0x00000000

08004188 <__kernel_tan>:
 8004188:	e92d 4ff0 	stmdb	sp!, {r4, r5, r6, r7, r8, r9, sl, fp, lr}
 800418c:	b08b      	sub	sp, #44	; 0x2c
 800418e:	9300      	str	r3, [sp, #0]
 8004190:	4bd9      	ldr	r3, [pc, #868]	; (80044f8 <__kernel_tan+0x370>)
 8004192:	f021 4600 	bic.w	r6, r1, #2147483648	; 0x80000000
 8004196:	429e      	cmp	r6, r3
 8004198:	4604      	mov	r4, r0
 800419a:	460d      	mov	r5, r1
 800419c:	4682      	mov	sl, r0
 800419e:	468b      	mov	fp, r1
 80041a0:	9f14      	ldr	r7, [sp, #80]	; 0x50
 80041a2:	9202      	str	r2, [sp, #8]
 80041a4:	9107      	str	r1, [sp, #28]
 80041a6:	dc58      	bgt.n	800425a <__kernel_tan+0xd2>
 80041a8:	f7fc fcdc 	bl	8000b64 <__aeabi_d2iz>
 80041ac:	4605      	mov	r5, r0
 80041ae:	2800      	cmp	r0, #0
 80041b0:	d178      	bne.n	80042a4 <__kernel_tan+0x11c>
 80041b2:	1c7b      	adds	r3, r7, #1
 80041b4:	4323      	orrs	r3, r4
 80041b6:	4333      	orrs	r3, r6
 80041b8:	d110      	bne.n	80041dc <__kernel_tan+0x54>
 80041ba:	4620      	mov	r0, r4
 80041bc:	4659      	mov	r1, fp
 80041be:	f000 f9df 	bl	8004580 <fabs>
 80041c2:	4602      	mov	r2, r0
 80041c4:	460b      	mov	r3, r1
 80041c6:	2000      	movs	r0, #0
 80041c8:	49cc      	ldr	r1, [pc, #816]	; (80044fc <__kernel_tan+0x374>)
 80041ca:	f7fc fb5b 	bl	8000884 <__aeabi_ddiv>
 80041ce:	4682      	mov	sl, r0
 80041d0:	468b      	mov	fp, r1
 80041d2:	4650      	mov	r0, sl
 80041d4:	4659      	mov	r1, fp
 80041d6:	b00b      	add	sp, #44	; 0x2c
 80041d8:	e8bd 8ff0 	ldmia.w	sp!, {r4, r5, r6, r7, r8, r9, sl, fp, pc}
 80041dc:	2f01      	cmp	r7, #1
 80041de:	d0f8      	beq.n	80041d2 <__kernel_tan+0x4a>
 80041e0:	4620      	mov	r0, r4
 80041e2:	4659      	mov	r1, fp
 80041e4:	9a02      	ldr	r2, [sp, #8]
 80041e6:	9b00      	ldr	r3, [sp, #0]
 80041e8:	f7fc f86c 	bl	80002c4 <__adddf3>
 80041ec:	4602      	mov	r2, r0
 80041ee:	460b      	mov	r3, r1
 80041f0:	460f      	mov	r7, r1
 80041f2:	2000      	movs	r0, #0
 80041f4:	49c2      	ldr	r1, [pc, #776]	; (8004500 <__kernel_tan+0x378>)
 80041f6:	f7fc fb45 	bl	8000884 <__aeabi_ddiv>
 80041fa:	462e      	mov	r6, r5
 80041fc:	4689      	mov	r9, r1
 80041fe:	4652      	mov	r2, sl
 8004200:	465b      	mov	r3, fp
 8004202:	4680      	mov	r8, r0
 8004204:	462c      	mov	r4, r5
 8004206:	4630      	mov	r0, r6
 8004208:	460d      	mov	r5, r1
 800420a:	4639      	mov	r1, r7
 800420c:	f7fc f858 	bl	80002c0 <__aeabi_dsub>
 8004210:	4602      	mov	r2, r0
 8004212:	460b      	mov	r3, r1
 8004214:	9802      	ldr	r0, [sp, #8]
 8004216:	9900      	ldr	r1, [sp, #0]
 8004218:	f7fc f852 	bl	80002c0 <__aeabi_dsub>
 800421c:	4632      	mov	r2, r6
 800421e:	464b      	mov	r3, r9
 8004220:	f7fc fa06 	bl	8000630 <__aeabi_dmul>
 8004224:	4632      	mov	r2, r6
 8004226:	4682      	mov	sl, r0
 8004228:	468b      	mov	fp, r1
 800422a:	464b      	mov	r3, r9
 800422c:	4630      	mov	r0, r6
 800422e:	4639      	mov	r1, r7
 8004230:	f7fc f9fe 	bl	8000630 <__aeabi_dmul>
 8004234:	2200      	movs	r2, #0
 8004236:	4bb1      	ldr	r3, [pc, #708]	; (80044fc <__kernel_tan+0x374>)
 8004238:	f7fc f844 	bl	80002c4 <__adddf3>
 800423c:	4602      	mov	r2, r0
 800423e:	460b      	mov	r3, r1
 8004240:	4650      	mov	r0, sl
 8004242:	4659      	mov	r1, fp
 8004244:	f7fc f83e 	bl	80002c4 <__adddf3>
 8004248:	4642      	mov	r2, r8
 800424a:	464b      	mov	r3, r9
 800424c:	f7fc f9f0 	bl	8000630 <__aeabi_dmul>
 8004250:	4622      	mov	r2, r4
 8004252:	462b      	mov	r3, r5
 8004254:	f7fc f836 	bl	80002c4 <__adddf3>
 8004258:	e7b9      	b.n	80041ce <__kernel_tan+0x46>
 800425a:	4baa      	ldr	r3, [pc, #680]	; (8004504 <__kernel_tan+0x37c>)
 800425c:	429e      	cmp	r6, r3
 800425e:	dd21      	ble.n	80042a4 <__kernel_tan+0x11c>
 8004260:	2900      	cmp	r1, #0
 8004262:	da06      	bge.n	8004272 <__kernel_tan+0xea>
 8004264:	f105 4300 	add.w	r3, r5, #2147483648	; 0x80000000
 8004268:	469b      	mov	fp, r3
 800426a:	9b00      	ldr	r3, [sp, #0]
 800426c:	f103 4300 	add.w	r3, r3, #2147483648	; 0x80000000
 8004270:	9300      	str	r3, [sp, #0]
 8004272:	4652      	mov	r2, sl
 8004274:	a182      	add	r1, pc, #520	; (adr r1, 8004480 <__kernel_tan+0x2f8>)
 8004276:	e9d1 0100 	ldrd	r0, r1, [r1]
 800427a:	465b      	mov	r3, fp
 800427c:	f7fc f820 	bl	80002c0 <__aeabi_dsub>
 8004280:	4604      	mov	r4, r0
 8004282:	460d      	mov	r5, r1
 8004284:	a180      	add	r1, pc, #512	; (adr r1, 8004488 <__kernel_tan+0x300>)
 8004286:	e9d1 0100 	ldrd	r0, r1, [r1]
 800428a:	9a02      	ldr	r2, [sp, #8]
 800428c:	9b00      	ldr	r3, [sp, #0]
 800428e:	f7fc f817 	bl	80002c0 <__aeabi_dsub>
 8004292:	462b      	mov	r3, r5
 8004294:	4622      	mov	r2, r4
 8004296:	f7fc f815 	bl	80002c4 <__adddf3>
 800429a:	2300      	movs	r3, #0
 800429c:	4682      	mov	sl, r0
 800429e:	468b      	mov	fp, r1
 80042a0:	9302      	str	r3, [sp, #8]
 80042a2:	9300      	str	r3, [sp, #0]
 80042a4:	4652      	mov	r2, sl
 80042a6:	465b      	mov	r3, fp
 80042a8:	4650      	mov	r0, sl
 80042aa:	4659      	mov	r1, fp
 80042ac:	f7fc f9c0 	bl	8000630 <__aeabi_dmul>
 80042b0:	4602      	mov	r2, r0
 80042b2:	460b      	mov	r3, r1
 80042b4:	4680      	mov	r8, r0
 80042b6:	4689      	mov	r9, r1
 80042b8:	f7fc f9ba 	bl	8000630 <__aeabi_dmul>
 80042bc:	4642      	mov	r2, r8
 80042be:	4604      	mov	r4, r0
 80042c0:	460d      	mov	r5, r1
 80042c2:	464b      	mov	r3, r9
 80042c4:	4650      	mov	r0, sl
 80042c6:	4659      	mov	r1, fp
 80042c8:	f7fc f9b2 	bl	8000630 <__aeabi_dmul>
 80042cc:	a370      	add	r3, pc, #448	; (adr r3, 8004490 <__kernel_tan+0x308>)
 80042ce:	e9d3 2300 	ldrd	r2, r3, [r3]
 80042d2:	e9cd 0104 	strd	r0, r1, [sp, #16]
 80042d6:	4620      	mov	r0, r4
 80042d8:	4629      	mov	r1, r5
 80042da:	f7fc f9a9 	bl	8000630 <__aeabi_dmul>
 80042de:	a36e      	add	r3, pc, #440	; (adr r3, 8004498 <__kernel_tan+0x310>)
 80042e0:	e9d3 2300 	ldrd	r2, r3, [r3]
 80042e4:	f7fb ffee 	bl	80002c4 <__adddf3>
 80042e8:	4622      	mov	r2, r4
 80042ea:	462b      	mov	r3, r5
 80042ec:	f7fc f9a0 	bl	8000630 <__aeabi_dmul>
 80042f0:	a36b      	add	r3, pc, #428	; (adr r3, 80044a0 <__kernel_tan+0x318>)
 80042f2:	e9d3 2300 	ldrd	r2, r3, [r3]
 80042f6:	f7fb ffe5 	bl	80002c4 <__adddf3>
 80042fa:	4622      	mov	r2, r4
 80042fc:	462b      	mov	r3, r5
 80042fe:	f7fc f997 	bl	8000630 <__aeabi_dmul>
 8004302:	a369      	add	r3, pc, #420	; (adr r3, 80044a8 <__kernel_tan+0x320>)
 8004304:	e9d3 2300 	ldrd	r2, r3, [r3]
 8004308:	f7fb ffdc 	bl	80002c4 <__adddf3>
 800430c:	4622      	mov	r2, r4
 800430e:	462b      	mov	r3, r5
 8004310:	f7fc f98e 	bl	8000630 <__aeabi_dmul>
 8004314:	a366      	add	r3, pc, #408	; (adr r3, 80044b0 <__kernel_tan+0x328>)
 8004316:	e9d3 2300 	ldrd	r2, r3, [r3]
 800431a:	f7fb ffd3 	bl	80002c4 <__adddf3>
 800431e:	4622      	mov	r2, r4
 8004320:	462b      	mov	r3, r5
 8004322:	f7fc f985 	bl	8000630 <__aeabi_dmul>
 8004326:	a364      	add	r3, pc, #400	; (adr r3, 80044b8 <__kernel_tan+0x330>)
 8004328:	e9d3 2300 	ldrd	r2, r3, [r3]
 800432c:	f7fb ffca 	bl	80002c4 <__adddf3>
 8004330:	4642      	mov	r2, r8
 8004332:	464b      	mov	r3, r9
 8004334:	f7fc f97c 	bl	8000630 <__aeabi_dmul>
 8004338:	a361      	add	r3, pc, #388	; (adr r3, 80044c0 <__kernel_tan+0x338>)
 800433a:	e9d3 2300 	ldrd	r2, r3, [r3]
 800433e:	e9cd 0108 	strd	r0, r1, [sp, #32]
 8004342:	4620      	mov	r0, r4
 8004344:	4629      	mov	r1, r5
 8004346:	f7fc f973 	bl	8000630 <__aeabi_dmul>
 800434a:	a35f      	add	r3, pc, #380	; (adr r3, 80044c8 <__kernel_tan+0x340>)
 800434c:	e9d3 2300 	ldrd	r2, r3, [r3]
 8004350:	f7fb ffb8 	bl	80002c4 <__adddf3>
 8004354:	4622      	mov	r2, r4
 8004356:	462b      	mov	r3, r5
 8004358:	f7fc f96a 	bl	8000630 <__aeabi_dmul>
 800435c:	a35c      	add	r3, pc, #368	; (adr r3, 80044d0 <__kernel_tan+0x348>)
 800435e:	e9d3 2300 	ldrd	r2, r3, [r3]
 8004362:	f7fb ffaf 	bl	80002c4 <__adddf3>
 8004366:	4622      	mov	r2, r4
 8004368:	462b      	mov	r3, r5
 800436a:	f7fc f961 	bl	8000630 <__aeabi_dmul>
 800436e:	a35a      	add	r3, pc, #360	; (adr r3, 80044d8 <__kernel_tan+0x350>)
 8004370:	e9d3 2300 	ldrd	r2, r3, [r3]
 8004374:	f7fb ffa6 	bl	80002c4 <__adddf3>
 8004378:	4622      	mov	r2, r4
 800437a:	462b      	mov	r3, r5
 800437c:	f7fc f958 	bl	8000630 <__aeabi_dmul>
 8004380:	a357      	add	r3, pc, #348	; (adr r3, 80044e0 <__kernel_tan+0x358>)
 8004382:	e9d3 2300 	ldrd	r2, r3, [r3]
 8004386:	f7fb ff9d 	bl	80002c4 <__adddf3>
 800438a:	4622      	mov	r2, r4
 800438c:	462b      	mov	r3, r5
 800438e:	f7fc f94f 	bl	8000630 <__aeabi_dmul>
 8004392:	a355      	add	r3, pc, #340	; (adr r3, 80044e8 <__kernel_tan+0x360>)
 8004394:	e9d3 2300 	ldrd	r2, r3, [r3]
 8004398:	f7fb ff94 	bl	80002c4 <__adddf3>
 800439c:	4602      	mov	r2, r0
 800439e:	460b      	mov	r3, r1
 80043a0:	e9dd 0108 	ldrd	r0, r1, [sp, #32]
 80043a4:	f7fb ff8e 	bl	80002c4 <__adddf3>
 80043a8:	e9dd 2304 	ldrd	r2, r3, [sp, #16]
 80043ac:	f7fc f940 	bl	8000630 <__aeabi_dmul>
 80043b0:	9a02      	ldr	r2, [sp, #8]
 80043b2:	9b00      	ldr	r3, [sp, #0]
 80043b4:	f7fb ff86 	bl	80002c4 <__adddf3>
 80043b8:	4642      	mov	r2, r8
 80043ba:	464b      	mov	r3, r9
 80043bc:	f7fc f938 	bl	8000630 <__aeabi_dmul>
 80043c0:	9a02      	ldr	r2, [sp, #8]
 80043c2:	9b00      	ldr	r3, [sp, #0]
 80043c4:	f7fb ff7e 	bl	80002c4 <__adddf3>
 80043c8:	a349      	add	r3, pc, #292	; (adr r3, 80044f0 <__kernel_tan+0x368>)
 80043ca:	e9d3 2300 	ldrd	r2, r3, [r3]
 80043ce:	4604      	mov	r4, r0
 80043d0:	460d      	mov	r5, r1
 80043d2:	e9dd 0104 	ldrd	r0, r1, [sp, #16]
 80043d6:	f7fc f92b 	bl	8000630 <__aeabi_dmul>
 80043da:	4622      	mov	r2, r4
 80043dc:	462b      	mov	r3, r5
 80043de:	f7fb ff71 	bl	80002c4 <__adddf3>
 80043e2:	460b      	mov	r3, r1
 80043e4:	e9cd 0100 	strd	r0, r1, [sp]
 80043e8:	4602      	mov	r2, r0
 80043ea:	4659      	mov	r1, fp
 80043ec:	4650      	mov	r0, sl
 80043ee:	f7fb ff69 	bl	80002c4 <__adddf3>
 80043f2:	4b44      	ldr	r3, [pc, #272]	; (8004504 <__kernel_tan+0x37c>)
 80043f4:	4604      	mov	r4, r0
 80043f6:	429e      	cmp	r6, r3
 80043f8:	460d      	mov	r5, r1
 80043fa:	f340 8085 	ble.w	8004508 <__kernel_tan+0x380>
 80043fe:	4638      	mov	r0, r7
 8004400:	f7fc f8ac 	bl	800055c <__aeabi_i2d>
 8004404:	4622      	mov	r2, r4
 8004406:	4680      	mov	r8, r0
 8004408:	4689      	mov	r9, r1
 800440a:	462b      	mov	r3, r5
 800440c:	4620      	mov	r0, r4
 800440e:	4629      	mov	r1, r5
 8004410:	f7fc f90e 	bl	8000630 <__aeabi_dmul>
 8004414:	4642      	mov	r2, r8
 8004416:	4606      	mov	r6, r0
 8004418:	460f      	mov	r7, r1
 800441a:	464b      	mov	r3, r9
 800441c:	4620      	mov	r0, r4
 800441e:	4629      	mov	r1, r5
 8004420:	f7fb ff50 	bl	80002c4 <__adddf3>
 8004424:	4602      	mov	r2, r0
 8004426:	460b      	mov	r3, r1
 8004428:	4630      	mov	r0, r6
 800442a:	4639      	mov	r1, r7
 800442c:	f7fc fa2a 	bl	8000884 <__aeabi_ddiv>
 8004430:	e9dd 2300 	ldrd	r2, r3, [sp]
 8004434:	f7fb ff44 	bl	80002c0 <__aeabi_dsub>
 8004438:	4602      	mov	r2, r0
 800443a:	460b      	mov	r3, r1
 800443c:	4650      	mov	r0, sl
 800443e:	4659      	mov	r1, fp
 8004440:	f7fb ff3e 	bl	80002c0 <__aeabi_dsub>
 8004444:	4602      	mov	r2, r0
 8004446:	460b      	mov	r3, r1
 8004448:	f7fb ff3c 	bl	80002c4 <__adddf3>
 800444c:	4602      	mov	r2, r0
 800444e:	460b      	mov	r3, r1
 8004450:	4640      	mov	r0, r8
 8004452:	4649      	mov	r1, r9
 8004454:	f7fb ff34 	bl	80002c0 <__aeabi_dsub>
 8004458:	9b07      	ldr	r3, [sp, #28]
 800445a:	4604      	mov	r4, r0
 800445c:	179b      	asrs	r3, r3, #30
 800445e:	f003 0302 	and.w	r3, r3, #2
 8004462:	f1c3 0001 	rsb	r0, r3, #1
 8004466:	460d      	mov	r5, r1
 8004468:	f7fc f878 	bl	800055c <__aeabi_i2d>
 800446c:	4602      	mov	r2, r0
 800446e:	460b      	mov	r3, r1
 8004470:	4620      	mov	r0, r4
 8004472:	4629      	mov	r1, r5
 8004474:	f7fc f8dc 	bl	8000630 <__aeabi_dmul>
 8004478:	e6a9      	b.n	80041ce <__kernel_tan+0x46>
 800447a:	bf00      	nop
 800447c:	f3af 8000 	nop.w
 8004480:	54442d18 	.word	0x54442d18
 8004484:	3fe921fb 	.word	0x3fe921fb
 8004488:	33145c07 	.word	0x33145c07
 800448c:	3c81a626 	.word	0x3c81a626
 8004490:	74bf7ad4 	.word	0x74bf7ad4
 8004494:	3efb2a70 	.word	0x3efb2a70
 8004498:	32f0a7e9 	.word	0x32f0a7e9
 800449c:	3f12b80f 	.word	0x3f12b80f
 80044a0:	1a8d1068 	.word	0x1a8d1068
 80044a4:	3f3026f7 	.word	0x3f3026f7
 80044a8:	fee08315 	.word	0xfee08315
 80044ac:	3f57dbc8 	.word	0x3f57dbc8
 80044b0:	e96e8493 	.word	0xe96e8493
 80044b4:	3f8226e3 	.word	0x3f8226e3
 80044b8:	1bb341fe 	.word	0x1bb341fe
 80044bc:	3faba1ba 	.word	0x3faba1ba
 80044c0:	db605373 	.word	0xdb605373
 80044c4:	bef375cb 	.word	0xbef375cb
 80044c8:	a03792a6 	.word	0xa03792a6
 80044cc:	3f147e88 	.word	0x3f147e88
 80044d0:	f2f26501 	.word	0xf2f26501
 80044d4:	3f4344d8 	.word	0x3f4344d8
 80044d8:	c9560328 	.word	0xc9560328
 80044dc:	3f6d6d22 	.word	0x3f6d6d22
 80044e0:	8406d637 	.word	0x8406d637
 80044e4:	3f9664f4 	.word	0x3f9664f4
 80044e8:	1110fe7a 	.word	0x1110fe7a
 80044ec:	3fc11111 	.word	0x3fc11111
 80044f0:	55555563 	.word	0x55555563
 80044f4:	3fd55555 	.word	0x3fd55555
 80044f8:	3e2fffff 	.word	0x3e2fffff
 80044fc:	3ff00000 	.word	0x3ff00000
 8004500:	bff00000 	.word	0xbff00000
 8004504:	3fe59427 	.word	0x3fe59427
 8004508:	2f01      	cmp	r7, #1
 800450a:	d031      	beq.n	8004570 <__kernel_tan+0x3e8>
 800450c:	460f      	mov	r7, r1
 800450e:	4602      	mov	r2, r0
 8004510:	460b      	mov	r3, r1
 8004512:	2000      	movs	r0, #0
 8004514:	4918      	ldr	r1, [pc, #96]	; (8004578 <__kernel_tan+0x3f0>)
 8004516:	f7fc f9b5 	bl	8000884 <__aeabi_ddiv>
 800451a:	2600      	movs	r6, #0
 800451c:	e9cd 0102 	strd	r0, r1, [sp, #8]
 8004520:	e9dd 4502 	ldrd	r4, r5, [sp, #8]
 8004524:	4652      	mov	r2, sl
 8004526:	465b      	mov	r3, fp
 8004528:	4630      	mov	r0, r6
 800452a:	4639      	mov	r1, r7
 800452c:	f7fb fec8 	bl	80002c0 <__aeabi_dsub>
 8004530:	4602      	mov	r2, r0
 8004532:	460b      	mov	r3, r1
 8004534:	e9dd 0100 	ldrd	r0, r1, [sp]
 8004538:	f7fb fec2 	bl	80002c0 <__aeabi_dsub>
 800453c:	4632      	mov	r2, r6
 800453e:	462b      	mov	r3, r5
 8004540:	f7fc f876 	bl	8000630 <__aeabi_dmul>
 8004544:	4632      	mov	r2, r6
 8004546:	4682      	mov	sl, r0
 8004548:	468b      	mov	fp, r1
 800454a:	462b      	mov	r3, r5
 800454c:	4630      	mov	r0, r6
 800454e:	4639      	mov	r1, r7
 8004550:	f7fc f86e 	bl	8000630 <__aeabi_dmul>
 8004554:	2200      	movs	r2, #0
 8004556:	4b09      	ldr	r3, [pc, #36]	; (800457c <__kernel_tan+0x3f4>)
 8004558:	f7fb feb4 	bl	80002c4 <__adddf3>
 800455c:	4602      	mov	r2, r0
 800455e:	460b      	mov	r3, r1
 8004560:	4650      	mov	r0, sl
 8004562:	4659      	mov	r1, fp
 8004564:	f7fb feae 	bl	80002c4 <__adddf3>
 8004568:	e9dd 2302 	ldrd	r2, r3, [sp, #8]
 800456c:	4634      	mov	r4, r6
 800456e:	e66d      	b.n	800424c <__kernel_tan+0xc4>
 8004570:	4682      	mov	sl, r0
 8004572:	468b      	mov	fp, r1
 8004574:	e62d      	b.n	80041d2 <__kernel_tan+0x4a>
 8004576:	bf00      	nop
 8004578:	bff00000 	.word	0xbff00000
 800457c:	3ff00000 	.word	0x3ff00000

08004580 <fabs>:
 8004580:	f021 4100 	bic.w	r1, r1, #2147483648	; 0x80000000
 8004584:	4770      	bx	lr
	...

08004588 <floor>:
 8004588:	e92d 43f8 	stmdb	sp!, {r3, r4, r5, r6, r7, r8, r9, lr}
 800458c:	f3c1 580a 	ubfx	r8, r1, #20, #11
 8004590:	f2a8 36ff 	subw	r6, r8, #1023	; 0x3ff
 8004594:	2e13      	cmp	r6, #19
 8004596:	4602      	mov	r2, r0
 8004598:	460b      	mov	r3, r1
 800459a:	4607      	mov	r7, r0
 800459c:	460c      	mov	r4, r1
 800459e:	4605      	mov	r5, r0
 80045a0:	dc33      	bgt.n	800460a <floor+0x82>
 80045a2:	2e00      	cmp	r6, #0
 80045a4:	da14      	bge.n	80045d0 <floor+0x48>
 80045a6:	a334      	add	r3, pc, #208	; (adr r3, 8004678 <floor+0xf0>)
 80045a8:	e9d3 2300 	ldrd	r2, r3, [r3]
 80045ac:	f7fb fe8a 	bl	80002c4 <__adddf3>
 80045b0:	2200      	movs	r2, #0
 80045b2:	2300      	movs	r3, #0
 80045b4:	f7fc facc 	bl	8000b50 <__aeabi_dcmpgt>
 80045b8:	b138      	cbz	r0, 80045ca <floor+0x42>
 80045ba:	2c00      	cmp	r4, #0
 80045bc:	da58      	bge.n	8004670 <floor+0xe8>
 80045be:	f024 4300 	bic.w	r3, r4, #2147483648	; 0x80000000
 80045c2:	431d      	orrs	r5, r3
 80045c4:	d001      	beq.n	80045ca <floor+0x42>
 80045c6:	2500      	movs	r5, #0
 80045c8:	4c2d      	ldr	r4, [pc, #180]	; (8004680 <floor+0xf8>)
 80045ca:	4623      	mov	r3, r4
 80045cc:	462f      	mov	r7, r5
 80045ce:	e025      	b.n	800461c <floor+0x94>
 80045d0:	4a2c      	ldr	r2, [pc, #176]	; (8004684 <floor+0xfc>)
 80045d2:	fa42 f806 	asr.w	r8, r2, r6
 80045d6:	ea01 0208 	and.w	r2, r1, r8
 80045da:	4302      	orrs	r2, r0
 80045dc:	d01e      	beq.n	800461c <floor+0x94>
 80045de:	a326      	add	r3, pc, #152	; (adr r3, 8004678 <floor+0xf0>)
 80045e0:	e9d3 2300 	ldrd	r2, r3, [r3]
 80045e4:	f7fb fe6e 	bl	80002c4 <__adddf3>
 80045e8:	2200      	movs	r2, #0
 80045ea:	2300      	movs	r3, #0
 80045ec:	f7fc fab0 	bl	8000b50 <__aeabi_dcmpgt>
 80045f0:	2800      	cmp	r0, #0
 80045f2:	d0ea      	beq.n	80045ca <floor+0x42>
 80045f4:	2c00      	cmp	r4, #0
 80045f6:	bfbe      	ittt	lt
 80045f8:	f44f 1380 	movlt.w	r3, #1048576	; 0x100000
 80045fc:	fa43 f606 	asrlt.w	r6, r3, r6
 8004600:	19a4      	addlt	r4, r4, r6
 8004602:	2500      	movs	r5, #0
 8004604:	ea24 0408 	bic.w	r4, r4, r8
 8004608:	e7df      	b.n	80045ca <floor+0x42>
 800460a:	2e33      	cmp	r6, #51	; 0x33
 800460c:	dd0a      	ble.n	8004624 <floor+0x9c>
 800460e:	f5b6 6f80 	cmp.w	r6, #1024	; 0x400
 8004612:	d103      	bne.n	800461c <floor+0x94>
 8004614:	f7fb fe56 	bl	80002c4 <__adddf3>
 8004618:	4607      	mov	r7, r0
 800461a:	460b      	mov	r3, r1
 800461c:	4638      	mov	r0, r7
 800461e:	4619      	mov	r1, r3
 8004620:	e8bd 83f8 	ldmia.w	sp!, {r3, r4, r5, r6, r7, r8, r9, pc}
 8004624:	f04f 32ff 	mov.w	r2, #4294967295
 8004628:	f2a8 4813 	subw	r8, r8, #1043	; 0x413
 800462c:	fa22 f808 	lsr.w	r8, r2, r8
 8004630:	ea18 0f00 	tst.w	r8, r0
 8004634:	d0f2      	beq.n	800461c <floor+0x94>
 8004636:	a310      	add	r3, pc, #64	; (adr r3, 8004678 <floor+0xf0>)
 8004638:	e9d3 2300 	ldrd	r2, r3, [r3]
 800463c:	f7fb fe42 	bl	80002c4 <__adddf3>
 8004640:	2200      	movs	r2, #0
 8004642:	2300      	movs	r3, #0
 8004644:	f7fc fa84 	bl	8000b50 <__aeabi_dcmpgt>
 8004648:	2800      	cmp	r0, #0
 800464a:	d0be      	beq.n	80045ca <floor+0x42>
 800464c:	2c00      	cmp	r4, #0
 800464e:	da02      	bge.n	8004656 <floor+0xce>
 8004650:	2e14      	cmp	r6, #20
 8004652:	d103      	bne.n	800465c <floor+0xd4>
 8004654:	3401      	adds	r4, #1
 8004656:	ea25 0508 	bic.w	r5, r5, r8
 800465a:	e7b6      	b.n	80045ca <floor+0x42>
 800465c:	2301      	movs	r3, #1
 800465e:	f1c6 0634 	rsb	r6, r6, #52	; 0x34
 8004662:	fa03 f606 	lsl.w	r6, r3, r6
 8004666:	4435      	add	r5, r6
 8004668:	42bd      	cmp	r5, r7
 800466a:	bf38      	it	cc
 800466c:	18e4      	addcc	r4, r4, r3
 800466e:	e7f2      	b.n	8004656 <floor+0xce>
 8004670:	2500      	movs	r5, #0
 8004672:	462c      	mov	r4, r5
 8004674:	e7a9      	b.n	80045ca <floor+0x42>
 8004676:	bf00      	nop
 8004678:	8800759c 	.word	0x8800759c
 800467c:	7e37e43c 	.word	0x7e37e43c
 8004680:	bff00000 	.word	0xbff00000
 8004684:	000fffff 	.word	0x000fffff

08004688 <scalbn>:
 8004688:	b5f8      	push	{r3, r4, r5, r6, r7, lr}
 800468a:	f3c1 560a 	ubfx	r6, r1, #20, #11
 800468e:	4604      	mov	r4, r0
 8004690:	460d      	mov	r5, r1
 8004692:	4617      	mov	r7, r2
 8004694:	460b      	mov	r3, r1
 8004696:	b996      	cbnz	r6, 80046be <scalbn+0x36>
 8004698:	f021 4300 	bic.w	r3, r1, #2147483648	; 0x80000000
 800469c:	4303      	orrs	r3, r0
 800469e:	d039      	beq.n	8004714 <scalbn+0x8c>
 80046a0:	4b33      	ldr	r3, [pc, #204]	; (8004770 <scalbn+0xe8>)
 80046a2:	2200      	movs	r2, #0
 80046a4:	f7fb ffc4 	bl	8000630 <__aeabi_dmul>
 80046a8:	4b32      	ldr	r3, [pc, #200]	; (8004774 <scalbn+0xec>)
 80046aa:	4604      	mov	r4, r0
 80046ac:	429f      	cmp	r7, r3
 80046ae:	460d      	mov	r5, r1
 80046b0:	da0f      	bge.n	80046d2 <scalbn+0x4a>
 80046b2:	a32b      	add	r3, pc, #172	; (adr r3, 8004760 <scalbn+0xd8>)
 80046b4:	e9d3 2300 	ldrd	r2, r3, [r3]
 80046b8:	f7fb ffba 	bl	8000630 <__aeabi_dmul>
 80046bc:	e006      	b.n	80046cc <scalbn+0x44>
 80046be:	f240 72ff 	movw	r2, #2047	; 0x7ff
 80046c2:	4296      	cmp	r6, r2
 80046c4:	d10a      	bne.n	80046dc <scalbn+0x54>
 80046c6:	4602      	mov	r2, r0
 80046c8:	f7fb fdfc 	bl	80002c4 <__adddf3>
 80046cc:	4604      	mov	r4, r0
 80046ce:	460d      	mov	r5, r1
 80046d0:	e020      	b.n	8004714 <scalbn+0x8c>
 80046d2:	460b      	mov	r3, r1
 80046d4:	f3c1 510a 	ubfx	r1, r1, #20, #11
 80046d8:	f1a1 0636 	sub.w	r6, r1, #54	; 0x36
 80046dc:	f240 72fe 	movw	r2, #2046	; 0x7fe
 80046e0:	19b9      	adds	r1, r7, r6
 80046e2:	4291      	cmp	r1, r2
 80046e4:	dd0e      	ble.n	8004704 <scalbn+0x7c>
 80046e6:	f005 4400 	and.w	r4, r5, #2147483648	; 0x80000000
 80046ea:	f044 41fc 	orr.w	r1, r4, #2113929216	; 0x7e000000
 80046ee:	f441 115f 	orr.w	r1, r1, #3653632	; 0x37c000
 80046f2:	f441 5110 	orr.w	r1, r1, #9216	; 0x2400
 80046f6:	4820      	ldr	r0, [pc, #128]	; (8004778 <scalbn+0xf0>)
 80046f8:	f041 013c 	orr.w	r1, r1, #60	; 0x3c
 80046fc:	a31a      	add	r3, pc, #104	; (adr r3, 8004768 <scalbn+0xe0>)
 80046fe:	e9d3 2300 	ldrd	r2, r3, [r3]
 8004702:	e7d9      	b.n	80046b8 <scalbn+0x30>
 8004704:	2900      	cmp	r1, #0
 8004706:	dd08      	ble.n	800471a <scalbn+0x92>
 8004708:	f023 43ff 	bic.w	r3, r3, #2139095040	; 0x7f800000
 800470c:	f423 03e0 	bic.w	r3, r3, #7340032	; 0x700000
 8004710:	ea43 5501 	orr.w	r5, r3, r1, lsl #20
 8004714:	4620      	mov	r0, r4
 8004716:	4629      	mov	r1, r5
 8004718:	bdf8      	pop	{r3, r4, r5, r6, r7, pc}
 800471a:	f111 0f35 	cmn.w	r1, #53	; 0x35
 800471e:	da12      	bge.n	8004746 <scalbn+0xbe>
 8004720:	f24c 3350 	movw	r3, #50000	; 0xc350
 8004724:	429f      	cmp	r7, r3
 8004726:	ea4f 73d5 	mov.w	r3, r5, lsr #31
 800472a:	ea4f 74c3 	mov.w	r4, r3, lsl #31
 800472e:	dcdc      	bgt.n	80046ea <scalbn+0x62>
 8004730:	a30b      	add	r3, pc, #44	; (adr r3, 8004760 <scalbn+0xd8>)
 8004732:	e9d3 2300 	ldrd	r2, r3, [r3]
 8004736:	f044 71d2 	orr.w	r1, r4, #27525120	; 0x1a40000
 800473a:	f441 31b7 	orr.w	r1, r1, #93696	; 0x16e00
 800473e:	480f      	ldr	r0, [pc, #60]	; (800477c <scalbn+0xf4>)
 8004740:	f041 011f 	orr.w	r1, r1, #31
 8004744:	e7b8      	b.n	80046b8 <scalbn+0x30>
 8004746:	f023 43ff 	bic.w	r3, r3, #2139095040	; 0x7f800000
 800474a:	3136      	adds	r1, #54	; 0x36
 800474c:	f423 03e0 	bic.w	r3, r3, #7340032	; 0x700000
 8004750:	ea43 5501 	orr.w	r5, r3, r1, lsl #20
 8004754:	4620      	mov	r0, r4
 8004756:	4629      	mov	r1, r5
 8004758:	2200      	movs	r2, #0
 800475a:	4b09      	ldr	r3, [pc, #36]	; (8004780 <scalbn+0xf8>)
 800475c:	e7ac      	b.n	80046b8 <scalbn+0x30>
 800475e:	bf00      	nop
 8004760:	c2f8f359 	.word	0xc2f8f359
 8004764:	01a56e1f 	.word	0x01a56e1f
 8004768:	8800759c 	.word	0x8800759c
 800476c:	7e37e43c 	.word	0x7e37e43c
 8004770:	43500000 	.word	0x43500000
 8004774:	ffff3cb0 	.word	0xffff3cb0
 8004778:	8800759c 	.word	0x8800759c
 800477c:	c2f8f359 	.word	0xc2f8f359
 8004780:	3c900000 	.word	0x3c900000

08004784 <__libc_init_array>:
 8004784:	b570      	push	{r4, r5, r6, lr}
 8004786:	2600      	movs	r6, #0
 8004788:	4d0c      	ldr	r5, [pc, #48]	; (80047bc <__libc_init_array+0x38>)
 800478a:	4c0d      	ldr	r4, [pc, #52]	; (80047c0 <__libc_init_array+0x3c>)
 800478c:	1b64      	subs	r4, r4, r5
 800478e:	10a4      	asrs	r4, r4, #2
 8004790:	42a6      	cmp	r6, r4
 8004792:	d109      	bne.n	80047a8 <__libc_init_array+0x24>
 8004794:	f000 f822 	bl	80047dc <_init>
 8004798:	2600      	movs	r6, #0
 800479a:	4d0a      	ldr	r5, [pc, #40]	; (80047c4 <__libc_init_array+0x40>)
 800479c:	4c0a      	ldr	r4, [pc, #40]	; (80047c8 <__libc_init_array+0x44>)
 800479e:	1b64      	subs	r4, r4, r5
 80047a0:	10a4      	asrs	r4, r4, #2
 80047a2:	42a6      	cmp	r6, r4
 80047a4:	d105      	bne.n	80047b2 <__libc_init_array+0x2e>
 80047a6:	bd70      	pop	{r4, r5, r6, pc}
 80047a8:	f855 3b04 	ldr.w	r3, [r5], #4
 80047ac:	4798      	blx	r3
 80047ae:	3601      	adds	r6, #1
 80047b0:	e7ee      	b.n	8004790 <__libc_init_array+0xc>
 80047b2:	f855 3b04 	ldr.w	r3, [r5], #4
 80047b6:	4798      	blx	r3
 80047b8:	3601      	adds	r6, #1
 80047ba:	e7f2      	b.n	80047a2 <__libc_init_array+0x1e>
 80047bc:	080049f8 	.word	0x080049f8
 80047c0:	080049f8 	.word	0x080049f8
 80047c4:	080049f8 	.word	0x080049f8
 80047c8:	080049fc 	.word	0x080049fc

080047cc <memset>:
 80047cc:	4603      	mov	r3, r0
 80047ce:	4402      	add	r2, r0
 80047d0:	4293      	cmp	r3, r2
 80047d2:	d100      	bne.n	80047d6 <memset+0xa>
 80047d4:	4770      	bx	lr
 80047d6:	f803 1b01 	strb.w	r1, [r3], #1
 80047da:	e7f9      	b.n	80047d0 <memset+0x4>

080047dc <_init>:
 80047dc:	b5f8      	push	{r3, r4, r5, r6, r7, lr}
 80047de:	bf00      	nop
 80047e0:	bcf8      	pop	{r3, r4, r5, r6, r7}
 80047e2:	bc08      	pop	{r3}
 80047e4:	469e      	mov	lr, r3
 80047e6:	4770      	bx	lr

080047e8 <_fini>:
 80047e8:	b5f8      	push	{r3, r4, r5, r6, r7, lr}
 80047ea:	bf00      	nop
 80047ec:	bcf8      	pop	{r3, r4, r5, r6, r7}
 80047ee:	bc08      	pop	{r3}
 80047f0:	469e      	mov	lr, r3
 80047f2:	4770      	bx	lr
